
bomb:     file format elf32-i386


Disassembly of section .init:

08048770 <_init>:
 8048770:	53                   	push   %ebx
 8048771:	83 ec 08             	sub    $0x8,%esp
 8048774:	e8 47 02 00 00       	call   80489c0 <__x86.get_pc_thunk.bx>
 8048779:	81 c3 87 38 00 00    	add    $0x3887,%ebx
 804877f:	8b 83 fc ff ff ff    	mov    -0x4(%ebx),%eax
 8048785:	85 c0                	test   %eax,%eax
 8048787:	74 05                	je     804878e <_init+0x1e>
 8048789:	e8 f2 00 00 00       	call   8048880 <__gmon_start__@plt>
 804878e:	83 c4 08             	add    $0x8,%esp
 8048791:	5b                   	pop    %ebx
 8048792:	c3                   	ret    

Disassembly of section .plt:

080487a0 <read@plt-0x10>:
 80487a0:	ff 35 04 c0 04 08    	pushl  0x804c004
 80487a6:	ff 25 08 c0 04 08    	jmp    *0x804c008
 80487ac:	00 00                	add    %al,(%eax)
	...

080487b0 <read@plt>:
 80487b0:	ff 25 0c c0 04 08    	jmp    *0x804c00c
 80487b6:	68 00 00 00 00       	push   $0x0
 80487bb:	e9 e0 ff ff ff       	jmp    80487a0 <_init+0x30>

080487c0 <fflush@plt>:
 80487c0:	ff 25 10 c0 04 08    	jmp    *0x804c010
 80487c6:	68 08 00 00 00       	push   $0x8
 80487cb:	e9 d0 ff ff ff       	jmp    80487a0 <_init+0x30>

080487d0 <fgets@plt>:
 80487d0:	ff 25 14 c0 04 08    	jmp    *0x804c014
 80487d6:	68 10 00 00 00       	push   $0x10
 80487db:	e9 c0 ff ff ff       	jmp    80487a0 <_init+0x30>

080487e0 <signal@plt>:
 80487e0:	ff 25 18 c0 04 08    	jmp    *0x804c018
 80487e6:	68 18 00 00 00       	push   $0x18
 80487eb:	e9 b0 ff ff ff       	jmp    80487a0 <_init+0x30>

080487f0 <sleep@plt>:
 80487f0:	ff 25 1c c0 04 08    	jmp    *0x804c01c
 80487f6:	68 20 00 00 00       	push   $0x20
 80487fb:	e9 a0 ff ff ff       	jmp    80487a0 <_init+0x30>

08048800 <alarm@plt>:
 8048800:	ff 25 20 c0 04 08    	jmp    *0x804c020
 8048806:	68 28 00 00 00       	push   $0x28
 804880b:	e9 90 ff ff ff       	jmp    80487a0 <_init+0x30>

08048810 <__stack_chk_fail@plt>:
 8048810:	ff 25 24 c0 04 08    	jmp    *0x804c024
 8048816:	68 30 00 00 00       	push   $0x30
 804881b:	e9 80 ff ff ff       	jmp    80487a0 <_init+0x30>

08048820 <strcpy@plt>:
 8048820:	ff 25 28 c0 04 08    	jmp    *0x804c028
 8048826:	68 38 00 00 00       	push   $0x38
 804882b:	e9 70 ff ff ff       	jmp    80487a0 <_init+0x30>

08048830 <gethostname@plt>:
 8048830:	ff 25 2c c0 04 08    	jmp    *0x804c02c
 8048836:	68 40 00 00 00       	push   $0x40
 804883b:	e9 60 ff ff ff       	jmp    80487a0 <_init+0x30>

08048840 <getenv@plt>:
 8048840:	ff 25 30 c0 04 08    	jmp    *0x804c030
 8048846:	68 48 00 00 00       	push   $0x48
 804884b:	e9 50 ff ff ff       	jmp    80487a0 <_init+0x30>

08048850 <puts@plt>:
 8048850:	ff 25 34 c0 04 08    	jmp    *0x804c034
 8048856:	68 50 00 00 00       	push   $0x50
 804885b:	e9 40 ff ff ff       	jmp    80487a0 <_init+0x30>

08048860 <__memmove_chk@plt>:
 8048860:	ff 25 38 c0 04 08    	jmp    *0x804c038
 8048866:	68 58 00 00 00       	push   $0x58
 804886b:	e9 30 ff ff ff       	jmp    80487a0 <_init+0x30>

08048870 <__memcpy_chk@plt>:
 8048870:	ff 25 3c c0 04 08    	jmp    *0x804c03c
 8048876:	68 60 00 00 00       	push   $0x60
 804887b:	e9 20 ff ff ff       	jmp    80487a0 <_init+0x30>

08048880 <__gmon_start__@plt>:
 8048880:	ff 25 40 c0 04 08    	jmp    *0x804c040
 8048886:	68 68 00 00 00       	push   $0x68
 804888b:	e9 10 ff ff ff       	jmp    80487a0 <_init+0x30>

08048890 <exit@plt>:
 8048890:	ff 25 44 c0 04 08    	jmp    *0x804c044
 8048896:	68 70 00 00 00       	push   $0x70
 804889b:	e9 00 ff ff ff       	jmp    80487a0 <_init+0x30>

080488a0 <__libc_start_main@plt>:
 80488a0:	ff 25 48 c0 04 08    	jmp    *0x804c048
 80488a6:	68 78 00 00 00       	push   $0x78
 80488ab:	e9 f0 fe ff ff       	jmp    80487a0 <_init+0x30>

080488b0 <write@plt>:
 80488b0:	ff 25 4c c0 04 08    	jmp    *0x804c04c
 80488b6:	68 80 00 00 00       	push   $0x80
 80488bb:	e9 e0 fe ff ff       	jmp    80487a0 <_init+0x30>

080488c0 <strcasecmp@plt>:
 80488c0:	ff 25 50 c0 04 08    	jmp    *0x804c050
 80488c6:	68 88 00 00 00       	push   $0x88
 80488cb:	e9 d0 fe ff ff       	jmp    80487a0 <_init+0x30>

080488d0 <__isoc99_sscanf@plt>:
 80488d0:	ff 25 54 c0 04 08    	jmp    *0x804c054
 80488d6:	68 90 00 00 00       	push   $0x90
 80488db:	e9 c0 fe ff ff       	jmp    80487a0 <_init+0x30>

080488e0 <fopen@plt>:
 80488e0:	ff 25 58 c0 04 08    	jmp    *0x804c058
 80488e6:	68 98 00 00 00       	push   $0x98
 80488eb:	e9 b0 fe ff ff       	jmp    80487a0 <_init+0x30>

080488f0 <__errno_location@plt>:
 80488f0:	ff 25 5c c0 04 08    	jmp    *0x804c05c
 80488f6:	68 a0 00 00 00       	push   $0xa0
 80488fb:	e9 a0 fe ff ff       	jmp    80487a0 <_init+0x30>

08048900 <__printf_chk@plt>:
 8048900:	ff 25 60 c0 04 08    	jmp    *0x804c060
 8048906:	68 a8 00 00 00       	push   $0xa8
 804890b:	e9 90 fe ff ff       	jmp    80487a0 <_init+0x30>

08048910 <socket@plt>:
 8048910:	ff 25 64 c0 04 08    	jmp    *0x804c064
 8048916:	68 b0 00 00 00       	push   $0xb0
 804891b:	e9 80 fe ff ff       	jmp    80487a0 <_init+0x30>

08048920 <__fprintf_chk@plt>:
 8048920:	ff 25 68 c0 04 08    	jmp    *0x804c068
 8048926:	68 b8 00 00 00       	push   $0xb8
 804892b:	e9 70 fe ff ff       	jmp    80487a0 <_init+0x30>

08048930 <gethostbyname@plt>:
 8048930:	ff 25 6c c0 04 08    	jmp    *0x804c06c
 8048936:	68 c0 00 00 00       	push   $0xc0
 804893b:	e9 60 fe ff ff       	jmp    80487a0 <_init+0x30>

08048940 <strtol@plt>:
 8048940:	ff 25 70 c0 04 08    	jmp    *0x804c070
 8048946:	68 c8 00 00 00       	push   $0xc8
 804894b:	e9 50 fe ff ff       	jmp    80487a0 <_init+0x30>

08048950 <connect@plt>:
 8048950:	ff 25 74 c0 04 08    	jmp    *0x804c074
 8048956:	68 d0 00 00 00       	push   $0xd0
 804895b:	e9 40 fe ff ff       	jmp    80487a0 <_init+0x30>

08048960 <close@plt>:
 8048960:	ff 25 78 c0 04 08    	jmp    *0x804c078
 8048966:	68 d8 00 00 00       	push   $0xd8
 804896b:	e9 30 fe ff ff       	jmp    80487a0 <_init+0x30>

08048970 <__ctype_b_loc@plt>:
 8048970:	ff 25 7c c0 04 08    	jmp    *0x804c07c
 8048976:	68 e0 00 00 00       	push   $0xe0
 804897b:	e9 20 fe ff ff       	jmp    80487a0 <_init+0x30>

08048980 <__sprintf_chk@plt>:
 8048980:	ff 25 80 c0 04 08    	jmp    *0x804c080
 8048986:	68 e8 00 00 00       	push   $0xe8
 804898b:	e9 10 fe ff ff       	jmp    80487a0 <_init+0x30>

Disassembly of section .text:

08048990 <_start>:
 8048990:	31 ed                	xor    %ebp,%ebp
 8048992:	5e                   	pop    %esi
 8048993:	89 e1                	mov    %esp,%ecx
 8048995:	83 e4 f0             	and    $0xfffffff0,%esp
 8048998:	50                   	push   %eax
 8048999:	54                   	push   %esp
 804899a:	52                   	push   %edx
 804899b:	68 70 a2 04 08       	push   $0x804a270
 80489a0:	68 00 a2 04 08       	push   $0x804a200
 80489a5:	51                   	push   %ecx
 80489a6:	56                   	push   %esi
 80489a7:	68 8d 8a 04 08       	push   $0x8048a8d
 80489ac:	e8 ef fe ff ff       	call   80488a0 <__libc_start_main@plt>
 80489b1:	f4                   	hlt    
 80489b2:	66 90                	xchg   %ax,%ax
 80489b4:	66 90                	xchg   %ax,%ax
 80489b6:	66 90                	xchg   %ax,%ax
 80489b8:	66 90                	xchg   %ax,%ax
 80489ba:	66 90                	xchg   %ax,%ax
 80489bc:	66 90                	xchg   %ax,%ax
 80489be:	66 90                	xchg   %ax,%ax

080489c0 <__x86.get_pc_thunk.bx>:
 80489c0:	8b 1c 24             	mov    (%esp),%ebx
 80489c3:	c3                   	ret    
 80489c4:	66 90                	xchg   %ax,%ax
 80489c6:	66 90                	xchg   %ax,%ax
 80489c8:	66 90                	xchg   %ax,%ax
 80489ca:	66 90                	xchg   %ax,%ax
 80489cc:	66 90                	xchg   %ax,%ax
 80489ce:	66 90                	xchg   %ax,%ax

080489d0 <deregister_tm_clones>:
 80489d0:	b8 e3 c7 04 08       	mov    $0x804c7e3,%eax
 80489d5:	2d e0 c7 04 08       	sub    $0x804c7e0,%eax
 80489da:	83 f8 06             	cmp    $0x6,%eax
 80489dd:	77 01                	ja     80489e0 <deregister_tm_clones+0x10>
 80489df:	c3                   	ret    
 80489e0:	b8 00 00 00 00       	mov    $0x0,%eax
 80489e5:	85 c0                	test   %eax,%eax
 80489e7:	74 f6                	je     80489df <deregister_tm_clones+0xf>
 80489e9:	55                   	push   %ebp
 80489ea:	89 e5                	mov    %esp,%ebp
 80489ec:	83 ec 18             	sub    $0x18,%esp
 80489ef:	c7 04 24 e0 c7 04 08 	movl   $0x804c7e0,(%esp)
 80489f6:	ff d0                	call   *%eax
 80489f8:	c9                   	leave  
 80489f9:	c3                   	ret    
 80489fa:	8d b6 00 00 00 00    	lea    0x0(%esi),%esi

08048a00 <register_tm_clones>:
 8048a00:	b8 e0 c7 04 08       	mov    $0x804c7e0,%eax
 8048a05:	2d e0 c7 04 08       	sub    $0x804c7e0,%eax
 8048a0a:	c1 f8 02             	sar    $0x2,%eax
 8048a0d:	89 c2                	mov    %eax,%edx
 8048a0f:	c1 ea 1f             	shr    $0x1f,%edx
 8048a12:	01 d0                	add    %edx,%eax
 8048a14:	d1 f8                	sar    %eax
 8048a16:	75 01                	jne    8048a19 <register_tm_clones+0x19>
 8048a18:	c3                   	ret    
 8048a19:	ba 00 00 00 00       	mov    $0x0,%edx
 8048a1e:	85 d2                	test   %edx,%edx
 8048a20:	74 f6                	je     8048a18 <register_tm_clones+0x18>
 8048a22:	55                   	push   %ebp
 8048a23:	89 e5                	mov    %esp,%ebp
 8048a25:	83 ec 18             	sub    $0x18,%esp
 8048a28:	89 44 24 04          	mov    %eax,0x4(%esp)
 8048a2c:	c7 04 24 e0 c7 04 08 	movl   $0x804c7e0,(%esp)
 8048a33:	ff d2                	call   *%edx
 8048a35:	c9                   	leave  
 8048a36:	c3                   	ret    
 8048a37:	89 f6                	mov    %esi,%esi
 8048a39:	8d bc 27 00 00 00 00 	lea    0x0(%edi,%eiz,1),%edi

08048a40 <__do_global_dtors_aux>:
 8048a40:	80 3d 04 c8 04 08 00 	cmpb   $0x0,0x804c804
 8048a47:	75 13                	jne    8048a5c <__do_global_dtors_aux+0x1c>
 8048a49:	55                   	push   %ebp
 8048a4a:	89 e5                	mov    %esp,%ebp
 8048a4c:	83 ec 08             	sub    $0x8,%esp
 8048a4f:	e8 7c ff ff ff       	call   80489d0 <deregister_tm_clones>
 8048a54:	c6 05 04 c8 04 08 01 	movb   $0x1,0x804c804
 8048a5b:	c9                   	leave  
 8048a5c:	f3 c3                	repz ret 
 8048a5e:	66 90                	xchg   %ax,%ax

08048a60 <frame_dummy>:
 8048a60:	a1 10 bf 04 08       	mov    0x804bf10,%eax
 8048a65:	85 c0                	test   %eax,%eax
 8048a67:	74 1f                	je     8048a88 <frame_dummy+0x28>
 8048a69:	b8 00 00 00 00       	mov    $0x0,%eax
 8048a6e:	85 c0                	test   %eax,%eax
 8048a70:	74 16                	je     8048a88 <frame_dummy+0x28>
 8048a72:	55                   	push   %ebp
 8048a73:	89 e5                	mov    %esp,%ebp
 8048a75:	83 ec 18             	sub    $0x18,%esp
 8048a78:	c7 04 24 10 bf 04 08 	movl   $0x804bf10,(%esp)
 8048a7f:	ff d0                	call   *%eax
 8048a81:	c9                   	leave  
 8048a82:	e9 79 ff ff ff       	jmp    8048a00 <register_tm_clones>
 8048a87:	90                   	nop
 8048a88:	e9 73 ff ff ff       	jmp    8048a00 <register_tm_clones>

08048a8d <main>:
 8048a8d:	55                   	push   %ebp
 8048a8e:	89 e5                	mov    %esp,%ebp
 8048a90:	53                   	push   %ebx
 8048a91:	83 e4 f0             	and    $0xfffffff0,%esp
 8048a94:	83 ec 10             	sub    $0x10,%esp
 8048a97:	8b 45 08             	mov    0x8(%ebp),%eax
 8048a9a:	8b 5d 0c             	mov    0xc(%ebp),%ebx
 8048a9d:	83 f8 01             	cmp    $0x1,%eax
 8048aa0:	75 0c                	jne    8048aae <main+0x21>
 8048aa2:	a1 e4 c7 04 08       	mov    0x804c7e4,%eax
 8048aa7:	a3 0c c8 04 08       	mov    %eax,0x804c80c
 8048aac:	eb 74                	jmp    8048b22 <main+0x95>
 8048aae:	83 f8 02             	cmp    $0x2,%eax
 8048ab1:	75 49                	jne    8048afc <main+0x6f>
 8048ab3:	c7 44 24 04 90 a2 04 	movl   $0x804a290,0x4(%esp)
 8048aba:	08 
 8048abb:	8b 43 04             	mov    0x4(%ebx),%eax
 8048abe:	89 04 24             	mov    %eax,(%esp)
 8048ac1:	e8 1a fe ff ff       	call   80488e0 <fopen@plt>
 8048ac6:	a3 0c c8 04 08       	mov    %eax,0x804c80c
 8048acb:	85 c0                	test   %eax,%eax
 8048acd:	75 53                	jne    8048b22 <main+0x95>
}

__fortify_function int
printf (const char *__restrict __fmt, ...)
{
  return __printf_chk (__USE_FORTIFY_LEVEL - 1, __fmt, __va_arg_pack ());
 8048acf:	8b 43 04             	mov    0x4(%ebx),%eax
 8048ad2:	89 44 24 0c          	mov    %eax,0xc(%esp)
 8048ad6:	8b 03                	mov    (%ebx),%eax
 8048ad8:	89 44 24 08          	mov    %eax,0x8(%esp)
 8048adc:	c7 44 24 04 92 a2 04 	movl   $0x804a292,0x4(%esp)
 8048ae3:	08 
 8048ae4:	c7 04 24 01 00 00 00 	movl   $0x1,(%esp)
 8048aeb:	e8 10 fe ff ff       	call   8048900 <__printf_chk@plt>
 8048af0:	c7 04 24 08 00 00 00 	movl   $0x8,(%esp)
 8048af7:	e8 94 fd ff ff       	call   8048890 <exit@plt>
 8048afc:	8b 03                	mov    (%ebx),%eax
 8048afe:	89 44 24 08          	mov    %eax,0x8(%esp)
 8048b02:	c7 44 24 04 af a2 04 	movl   $0x804a2af,0x4(%esp)
 8048b09:	08 
 8048b0a:	c7 04 24 01 00 00 00 	movl   $0x1,(%esp)
 8048b11:	e8 ea fd ff ff       	call   8048900 <__printf_chk@plt>
 8048b16:	c7 04 24 08 00 00 00 	movl   $0x8,(%esp)
 8048b1d:	e8 6e fd ff ff       	call   8048890 <exit@plt>
 8048b22:	e8 cf 05 00 00       	call   80490f6 <initialize_bomb>
 8048b27:	c7 04 24 14 a3 04 08 	movl   $0x804a314,(%esp)
 8048b2e:	e8 1d fd ff ff       	call   8048850 <puts@plt>
 8048b33:	c7 04 24 50 a3 04 08 	movl   $0x804a350,(%esp)
 8048b3a:	e8 11 fd ff ff       	call   8048850 <puts@plt>
 8048b3f:	e8 d0 08 00 00       	call   8049414 <read_line>
 8048b44:	89 04 24             	mov    %eax,(%esp)
 8048b47:	e8 b4 00 00 00       	call   8048c00 <phase_1>
 8048b4c:	e8 bd 09 00 00       	call   804950e <phase_defused>
 8048b51:	c7 04 24 7c a3 04 08 	movl   $0x804a37c,(%esp)
 8048b58:	e8 f3 fc ff ff       	call   8048850 <puts@plt>
 8048b5d:	e8 b2 08 00 00       	call   8049414 <read_line>
 8048b62:	89 04 24             	mov    %eax,(%esp)
 8048b65:	e8 ba 00 00 00       	call   8048c24 <phase_2>
 8048b6a:	e8 9f 09 00 00       	call   804950e <phase_defused>
 8048b6f:	c7 04 24 c9 a2 04 08 	movl   $0x804a2c9,(%esp)
 8048b76:	e8 d5 fc ff ff       	call   8048850 <puts@plt>
 8048b7b:	e8 94 08 00 00       	call   8049414 <read_line>
 8048b80:	89 04 24             	mov    %eax,(%esp)
 8048b83:	e8 ea 00 00 00       	call   8048c72 <phase_3>
 8048b88:	e8 81 09 00 00       	call   804950e <phase_defused>
 8048b8d:	c7 04 24 e7 a2 04 08 	movl   $0x804a2e7,(%esp)
 8048b94:	e8 b7 fc ff ff       	call   8048850 <puts@plt>
 8048b99:	e8 76 08 00 00       	call   8049414 <read_line>
 8048b9e:	89 04 24             	mov    %eax,(%esp)
 8048ba1:	e8 aa 01 00 00       	call   8048d50 <phase_4>
 8048ba6:	e8 63 09 00 00       	call   804950e <phase_defused>
 8048bab:	c7 04 24 a8 a3 04 08 	movl   $0x804a3a8,(%esp)
 8048bb2:	e8 99 fc ff ff       	call   8048850 <puts@plt>
 8048bb7:	e8 58 08 00 00       	call   8049414 <read_line>
 8048bbc:	89 04 24             	mov    %eax,(%esp)
 8048bbf:	e8 ed 01 00 00       	call   8048db1 <phase_5>
 8048bc4:	e8 45 09 00 00       	call   804950e <phase_defused>
 8048bc9:	c7 04 24 f6 a2 04 08 	movl   $0x804a2f6,(%esp)
 8048bd0:	e8 7b fc ff ff       	call   8048850 <puts@plt>
 8048bd5:	e8 3a 08 00 00       	call   8049414 <read_line>
 8048bda:	89 04 24             	mov    %eax,(%esp)
 8048bdd:	e8 53 02 00 00       	call   8048e35 <phase_6>
 8048be2:	e8 27 09 00 00       	call   804950e <phase_defused>
 8048be7:	b8 00 00 00 00       	mov    $0x0,%eax
 8048bec:	8b 5d fc             	mov    -0x4(%ebp),%ebx
 8048bef:	c9                   	leave  
 8048bf0:	c3                   	ret    
 8048bf1:	66 90                	xchg   %ax,%ax
 8048bf3:	66 90                	xchg   %ax,%ax
 8048bf5:	66 90                	xchg   %ax,%ax
 8048bf7:	66 90                	xchg   %ax,%ax
 8048bf9:	66 90                	xchg   %ax,%ax
 8048bfb:	66 90                	xchg   %ax,%ax
 8048bfd:	66 90                	xchg   %ax,%ax
 8048bff:	90                   	nop

08048c00 <phase_1>:
 8048c00:	83 ec 1c             	sub    $0x1c,%esp
 8048c03:	c7 44 24 04 cc a3 04 	movl   $0x804a3cc,0x4(%esp)
 8048c0a:	08 
 8048c0b:	8b 44 24 20          	mov    0x20(%esp),%eax
 8048c0f:	89 04 24             	mov    %eax,(%esp)
 8048c12:	e8 73 04 00 00       	call   804908a <strings_not_equal>
 8048c17:	85 c0                	test   %eax,%eax
 8048c19:	74 05                	je     8048c20 <phase_1+0x20>
 8048c1b:	e8 65 07 00 00       	call   8049385 <explode_bomb>
 8048c20:	83 c4 1c             	add    $0x1c,%esp
 8048c23:	c3                   	ret    

08048c24 <phase_2>:
 8048c24:	56                   	push   %esi
 8048c25:	53                   	push   %ebx
 8048c26:	83 ec 34             	sub    $0x34,%esp
 8048c29:	8d 44 24 18          	lea    0x18(%esp),%eax
 8048c2d:	89 44 24 04          	mov    %eax,0x4(%esp)
 8048c31:	8b 44 24 40          	mov    0x40(%esp),%eax
 8048c35:	89 04 24             	mov    %eax,(%esp)
 8048c38:	e8 87 07 00 00       	call   80493c4 <read_six_numbers>
 8048c3d:	83 7c 24 18 01       	cmpl   $0x1,0x18(%esp)
 8048c42:	74 1e                	je     8048c62 <phase_2+0x3e>
 8048c44:	e8 3c 07 00 00       	call   8049385 <explode_bomb>
 8048c49:	eb 17                	jmp    8048c62 <phase_2+0x3e>
 8048c4b:	8b 43 fc             	mov    -0x4(%ebx),%eax
 8048c4e:	01 c0                	add    %eax,%eax
 8048c50:	39 03                	cmp    %eax,(%ebx)
 8048c52:	74 05                	je     8048c59 <phase_2+0x35>
 8048c54:	e8 2c 07 00 00       	call   8049385 <explode_bomb>
 8048c59:	83 c3 04             	add    $0x4,%ebx
 8048c5c:	39 f3                	cmp    %esi,%ebx
 8048c5e:	75 eb                	jne    8048c4b <phase_2+0x27>
 8048c60:	eb 0a                	jmp    8048c6c <phase_2+0x48>
 8048c62:	8d 5c 24 1c          	lea    0x1c(%esp),%ebx
 8048c66:	8d 74 24 30          	lea    0x30(%esp),%esi
 8048c6a:	eb df                	jmp    8048c4b <phase_2+0x27>
 8048c6c:	83 c4 34             	add    $0x34,%esp
 8048c6f:	5b                   	pop    %ebx
 8048c70:	5e                   	pop    %esi
 8048c71:	c3                   	ret    

08048c72 <phase_3>:
 8048c72:	83 ec 2c             	sub    $0x2c,%esp
 8048c75:	8d 44 24 1c          	lea    0x1c(%esp),%eax
 8048c79:	89 44 24 0c          	mov    %eax,0xc(%esp)
 8048c7d:	8d 44 24 18          	lea    0x18(%esp),%eax
 8048c81:	89 44 24 08          	mov    %eax,0x8(%esp)
 8048c85:	c7 44 24 04 a1 a6 04 	movl   $0x804a6a1,0x4(%esp)
 8048c8c:	08 
 8048c8d:	8b 44 24 30          	mov    0x30(%esp),%eax
 8048c91:	89 04 24             	mov    %eax,(%esp)
 8048c94:	e8 37 fc ff ff       	call   80488d0 <__isoc99_sscanf@plt>
 8048c99:	83 f8 01             	cmp    $0x1,%eax
 8048c9c:	7f 05                	jg     8048ca3 <phase_3+0x31>
 8048c9e:	e8 e2 06 00 00       	call   8049385 <explode_bomb>
 8048ca3:	83 7c 24 18 07       	cmpl   $0x7,0x18(%esp)
 8048ca8:	77 3c                	ja     8048ce6 <phase_3+0x74>
 8048caa:	8b 44 24 18          	mov    0x18(%esp),%eax
 8048cae:	ff 24 85 30 a4 04 08 	jmp    *0x804a430(,%eax,4)
 8048cb5:	b8 09 01 00 00       	mov    $0x109,%eax
 8048cba:	eb 3b                	jmp    8048cf7 <phase_3+0x85>
 8048cbc:	b8 9e 03 00 00       	mov    $0x39e,%eax
 8048cc1:	eb 34                	jmp    8048cf7 <phase_3+0x85>
 8048cc3:	b8 25 03 00 00       	mov    $0x325,%eax
 8048cc8:	eb 2d                	jmp    8048cf7 <phase_3+0x85>
 8048cca:	b8 72 01 00 00       	mov    $0x172,%eax
 8048ccf:	eb 26                	jmp    8048cf7 <phase_3+0x85>
 8048cd1:	b8 49 03 00 00       	mov    $0x349,%eax
 8048cd6:	eb 1f                	jmp    8048cf7 <phase_3+0x85>
 8048cd8:	b8 e2 02 00 00       	mov    $0x2e2,%eax
 8048cdd:	eb 18                	jmp    8048cf7 <phase_3+0x85>
 8048cdf:	b8 50 00 00 00       	mov    $0x50,%eax
 8048ce4:	eb 11                	jmp    8048cf7 <phase_3+0x85>
 8048ce6:	e8 9a 06 00 00       	call   8049385 <explode_bomb>
 8048ceb:	b8 00 00 00 00       	mov    $0x0,%eax
 8048cf0:	eb 05                	jmp    8048cf7 <phase_3+0x85>
 8048cf2:	b8 5d 00 00 00       	mov    $0x5d,%eax
 8048cf7:	3b 44 24 1c          	cmp    0x1c(%esp),%eax
 8048cfb:	74 05                	je     8048d02 <phase_3+0x90>
 8048cfd:	e8 83 06 00 00       	call   8049385 <explode_bomb>
 8048d02:	83 c4 2c             	add    $0x2c,%esp
 8048d05:	c3                   	ret    

08048d06 <func4>:
 8048d06:	57                   	push   %edi
 8048d07:	56                   	push   %esi
 8048d08:	53                   	push   %ebx
 8048d09:	83 ec 10             	sub    $0x10,%esp
 8048d0c:	8b 5c 24 20          	mov    0x20(%esp),%ebx
 8048d10:	8b 74 24 24          	mov    0x24(%esp),%esi
 8048d14:	85 db                	test   %ebx,%ebx
 8048d16:	7e 2c                	jle    8048d44 <func4+0x3e>
 8048d18:	89 f0                	mov    %esi,%eax
 8048d1a:	83 fb 01             	cmp    $0x1,%ebx
 8048d1d:	74 2a                	je     8048d49 <func4+0x43>
 8048d1f:	89 74 24 04          	mov    %esi,0x4(%esp)
 8048d23:	8d 43 ff             	lea    -0x1(%ebx),%eax
 8048d26:	89 04 24             	mov    %eax,(%esp)
 8048d29:	e8 d8 ff ff ff       	call   8048d06 <func4>
 8048d2e:	8d 3c 30             	lea    (%eax,%esi,1),%edi
 8048d31:	89 74 24 04          	mov    %esi,0x4(%esp)
 8048d35:	83 eb 02             	sub    $0x2,%ebx
 8048d38:	89 1c 24             	mov    %ebx,(%esp)
 8048d3b:	e8 c6 ff ff ff       	call   8048d06 <func4>
 8048d40:	01 f8                	add    %edi,%eax
 8048d42:	eb 05                	jmp    8048d49 <func4+0x43>
 8048d44:	b8 00 00 00 00       	mov    $0x0,%eax
 8048d49:	83 c4 10             	add    $0x10,%esp
 8048d4c:	5b                   	pop    %ebx
 8048d4d:	5e                   	pop    %esi
 8048d4e:	5f                   	pop    %edi
 8048d4f:	c3                   	ret    

08048d50 <phase_4>:
 8048d50:	83 ec 2c             	sub    $0x2c,%esp
 8048d53:	8d 44 24 18          	lea    0x18(%esp),%eax
 8048d57:	89 44 24 0c          	mov    %eax,0xc(%esp)
 8048d5b:	8d 44 24 1c          	lea    0x1c(%esp),%eax
 8048d5f:	89 44 24 08          	mov    %eax,0x8(%esp)
 8048d63:	c7 44 24 04 a1 a6 04 	movl   $0x804a6a1,0x4(%esp)
 8048d6a:	08 
 8048d6b:	8b 44 24 30          	mov    0x30(%esp),%eax
 8048d6f:	89 04 24             	mov    %eax,(%esp)
 8048d72:	e8 59 fb ff ff       	call   80488d0 <__isoc99_sscanf@plt>
 8048d77:	83 f8 02             	cmp    $0x2,%eax
 8048d7a:	75 0c                	jne    8048d88 <phase_4+0x38>
 8048d7c:	8b 44 24 18          	mov    0x18(%esp),%eax
 8048d80:	83 e8 02             	sub    $0x2,%eax
 8048d83:	83 f8 02             	cmp    $0x2,%eax
 8048d86:	76 05                	jbe    8048d8d <phase_4+0x3d>
 8048d88:	e8 f8 05 00 00       	call   8049385 <explode_bomb>
 8048d8d:	8b 44 24 18          	mov    0x18(%esp),%eax
 8048d91:	89 44 24 04          	mov    %eax,0x4(%esp)
 8048d95:	c7 04 24 06 00 00 00 	movl   $0x6,(%esp)
 8048d9c:	e8 65 ff ff ff       	call   8048d06 <func4>
 8048da1:	3b 44 24 1c          	cmp    0x1c(%esp),%eax
 8048da5:	74 05                	je     8048dac <phase_4+0x5c>
 8048da7:	e8 d9 05 00 00       	call   8049385 <explode_bomb>
 8048dac:	83 c4 2c             	add    $0x2c,%esp
 8048daf:	90                   	nop
 8048db0:	c3                   	ret    

08048db1 <phase_5>:
 8048db1:	53                   	push   %ebx
 8048db2:	83 ec 28             	sub    $0x28,%esp
 8048db5:	8b 5c 24 30          	mov    0x30(%esp),%ebx
 8048db9:	65 a1 14 00 00 00    	mov    %gs:0x14,%eax
 8048dbf:	89 44 24 1c          	mov    %eax,0x1c(%esp)
 8048dc3:	31 c0                	xor    %eax,%eax
 8048dc5:	89 1c 24             	mov    %ebx,(%esp)
 8048dc8:	e8 9e 02 00 00       	call   804906b <string_length>
 8048dcd:	83 f8 06             	cmp    $0x6,%eax
 8048dd0:	74 45                	je     8048e17 <phase_5+0x66>
 8048dd2:	e8 ae 05 00 00       	call   8049385 <explode_bomb>
 8048dd7:	eb 3e                	jmp    8048e17 <phase_5+0x66>
 8048dd9:	0f b6 14 03          	movzbl (%ebx,%eax,1),%edx
 8048ddd:	83 e2 0f             	and    $0xf,%edx
 8048de0:	0f b6 92 50 a4 04 08 	movzbl 0x804a450(%edx),%edx
 8048de7:	88 54 04 15          	mov    %dl,0x15(%esp,%eax,1)
 8048deb:	83 c0 01             	add    $0x1,%eax
 8048dee:	83 f8 06             	cmp    $0x6,%eax
 8048df1:	75 e6                	jne    8048dd9 <phase_5+0x28>
 8048df3:	c6 44 24 1b 00       	movb   $0x0,0x1b(%esp)
 8048df8:	c7 44 24 04 26 a4 04 	movl   $0x804a426,0x4(%esp)
 8048dff:	08 
 8048e00:	8d 44 24 15          	lea    0x15(%esp),%eax
 8048e04:	89 04 24             	mov    %eax,(%esp)
 8048e07:	e8 7e 02 00 00       	call   804908a <strings_not_equal>
 8048e0c:	85 c0                	test   %eax,%eax
 8048e0e:	74 0e                	je     8048e1e <phase_5+0x6d>
 8048e10:	e8 70 05 00 00       	call   8049385 <explode_bomb>
 8048e15:	eb 07                	jmp    8048e1e <phase_5+0x6d>
 8048e17:	b8 00 00 00 00       	mov    $0x0,%eax
 8048e1c:	eb bb                	jmp    8048dd9 <phase_5+0x28>
 8048e1e:	8b 44 24 1c          	mov    0x1c(%esp),%eax
 8048e22:	65 33 05 14 00 00 00 	xor    %gs:0x14,%eax
 8048e29:	74 05                	je     8048e30 <phase_5+0x7f>
 8048e2b:	e8 e0 f9 ff ff       	call   8048810 <__stack_chk_fail@plt>
 8048e30:	83 c4 28             	add    $0x28,%esp
 8048e33:	5b                   	pop    %ebx
 8048e34:	c3                   	ret    

08048e35 <phase_6>:
 8048e35:	56                   	push   %esi
 8048e36:	53                   	push   %ebx
 8048e37:	83 ec 44             	sub    $0x44,%esp
 8048e3a:	8d 44 24 10          	lea    0x10(%esp),%eax
 8048e3e:	89 44 24 04          	mov    %eax,0x4(%esp)
 8048e42:	8b 44 24 50          	mov    0x50(%esp),%eax
 8048e46:	89 04 24             	mov    %eax,(%esp)
 8048e49:	e8 76 05 00 00       	call   80493c4 <read_six_numbers>
 8048e4e:	be 00 00 00 00       	mov    $0x0,%esi
 8048e53:	8b 44 b4 10          	mov    0x10(%esp,%esi,4),%eax
 8048e57:	83 e8 01             	sub    $0x1,%eax
 8048e5a:	83 f8 05             	cmp    $0x5,%eax
 8048e5d:	76 05                	jbe    8048e64 <phase_6+0x2f>
 8048e5f:	e8 21 05 00 00       	call   8049385 <explode_bomb>
 8048e64:	83 c6 01             	add    $0x1,%esi
 8048e67:	83 fe 06             	cmp    $0x6,%esi
 8048e6a:	74 1b                	je     8048e87 <phase_6+0x52>
 8048e6c:	89 f3                	mov    %esi,%ebx
 8048e6e:	8b 44 9c 10          	mov    0x10(%esp,%ebx,4),%eax
 8048e72:	39 44 b4 0c          	cmp    %eax,0xc(%esp,%esi,4)
 8048e76:	75 05                	jne    8048e7d <phase_6+0x48>
 8048e78:	e8 08 05 00 00       	call   8049385 <explode_bomb>
 8048e7d:	83 c3 01             	add    $0x1,%ebx
 8048e80:	83 fb 05             	cmp    $0x5,%ebx
 8048e83:	7e e9                	jle    8048e6e <phase_6+0x39>
 8048e85:	eb cc                	jmp    8048e53 <phase_6+0x1e>
 8048e87:	8d 44 24 10          	lea    0x10(%esp),%eax
 8048e8b:	8d 5c 24 28          	lea    0x28(%esp),%ebx
 8048e8f:	b9 07 00 00 00       	mov    $0x7,%ecx
 8048e94:	89 ca                	mov    %ecx,%edx
 8048e96:	2b 10                	sub    (%eax),%edx
 8048e98:	89 10                	mov    %edx,(%eax)
 8048e9a:	83 c0 04             	add    $0x4,%eax
 8048e9d:	39 d8                	cmp    %ebx,%eax
 8048e9f:	75 f3                	jne    8048e94 <phase_6+0x5f>
 8048ea1:	bb 00 00 00 00       	mov    $0x0,%ebx
 8048ea6:	eb 1d                	jmp    8048ec5 <phase_6+0x90>
 8048ea8:	8b 52 08             	mov    0x8(%edx),%edx
 8048eab:	83 c0 01             	add    $0x1,%eax
 8048eae:	39 c8                	cmp    %ecx,%eax
 8048eb0:	75 f6                	jne    8048ea8 <phase_6+0x73>
 8048eb2:	eb 05                	jmp    8048eb9 <phase_6+0x84>
 8048eb4:	ba 74 c1 04 08       	mov    $0x804c174,%edx
 8048eb9:	89 54 b4 28          	mov    %edx,0x28(%esp,%esi,4)
 8048ebd:	83 c3 01             	add    $0x1,%ebx
 8048ec0:	83 fb 06             	cmp    $0x6,%ebx
 8048ec3:	74 17                	je     8048edc <phase_6+0xa7>
 8048ec5:	89 de                	mov    %ebx,%esi
 8048ec7:	8b 4c 9c 10          	mov    0x10(%esp,%ebx,4),%ecx
 8048ecb:	83 f9 01             	cmp    $0x1,%ecx
 8048ece:	7e e4                	jle    8048eb4 <phase_6+0x7f>
 8048ed0:	b8 01 00 00 00       	mov    $0x1,%eax
 8048ed5:	ba 74 c1 04 08       	mov    $0x804c174,%edx
 8048eda:	eb cc                	jmp    8048ea8 <phase_6+0x73>
 8048edc:	8b 5c 24 28          	mov    0x28(%esp),%ebx
 8048ee0:	8d 44 24 2c          	lea    0x2c(%esp),%eax
 8048ee4:	8d 74 24 40          	lea    0x40(%esp),%esi
 8048ee8:	89 d9                	mov    %ebx,%ecx
 8048eea:	8b 10                	mov    (%eax),%edx
 8048eec:	89 51 08             	mov    %edx,0x8(%ecx)
 8048eef:	83 c0 04             	add    $0x4,%eax
 8048ef2:	39 f0                	cmp    %esi,%eax
 8048ef4:	74 04                	je     8048efa <phase_6+0xc5>
 8048ef6:	89 d1                	mov    %edx,%ecx
 8048ef8:	eb f0                	jmp    8048eea <phase_6+0xb5>
 8048efa:	c7 42 08 00 00 00 00 	movl   $0x0,0x8(%edx)
 8048f01:	be 05 00 00 00       	mov    $0x5,%esi
 8048f06:	8b 43 08             	mov    0x8(%ebx),%eax
 8048f09:	8b 00                	mov    (%eax),%eax
 8048f0b:	39 03                	cmp    %eax,(%ebx)
 8048f0d:	7d 05                	jge    8048f14 <phase_6+0xdf>
 8048f0f:	e8 71 04 00 00       	call   8049385 <explode_bomb>
 8048f14:	8b 5b 08             	mov    0x8(%ebx),%ebx
 8048f17:	83 ee 01             	sub    $0x1,%esi
 8048f1a:	75 ea                	jne    8048f06 <phase_6+0xd1>
 8048f1c:	83 c4 44             	add    $0x44,%esp
 8048f1f:	5b                   	pop    %ebx
 8048f20:	5e                   	pop    %esi
 8048f21:	c3                   	ret    

08048f22 <fun7>:
 8048f22:	53                   	push   %ebx
 8048f23:	83 ec 18             	sub    $0x18,%esp
 8048f26:	8b 54 24 20          	mov    0x20(%esp),%edx
 8048f2a:	8b 4c 24 24          	mov    0x24(%esp),%ecx
 8048f2e:	85 d2                	test   %edx,%edx
 8048f30:	74 37                	je     8048f69 <fun7+0x47>
 8048f32:	8b 1a                	mov    (%edx),%ebx
 8048f34:	39 cb                	cmp    %ecx,%ebx
 8048f36:	7e 13                	jle    8048f4b <fun7+0x29>
 8048f38:	89 4c 24 04          	mov    %ecx,0x4(%esp)
 8048f3c:	8b 42 04             	mov    0x4(%edx),%eax
 8048f3f:	89 04 24             	mov    %eax,(%esp)
 8048f42:	e8 db ff ff ff       	call   8048f22 <fun7>
 8048f47:	01 c0                	add    %eax,%eax
 8048f49:	eb 23                	jmp    8048f6e <fun7+0x4c>
 8048f4b:	b8 00 00 00 00       	mov    $0x0,%eax
 8048f50:	39 cb                	cmp    %ecx,%ebx
 8048f52:	74 1a                	je     8048f6e <fun7+0x4c>
 8048f54:	89 4c 24 04          	mov    %ecx,0x4(%esp)
 8048f58:	8b 42 08             	mov    0x8(%edx),%eax
 8048f5b:	89 04 24             	mov    %eax,(%esp)
 8048f5e:	e8 bf ff ff ff       	call   8048f22 <fun7>
 8048f63:	8d 44 00 01          	lea    0x1(%eax,%eax,1),%eax
 8048f67:	eb 05                	jmp    8048f6e <fun7+0x4c>
 8048f69:	b8 ff ff ff ff       	mov    $0xffffffff,%eax
 8048f6e:	83 c4 18             	add    $0x18,%esp
 8048f71:	5b                   	pop    %ebx
 8048f72:	c3                   	ret    

08048f73 <secret_phase>:
 8048f73:	53                   	push   %ebx
 8048f74:	83 ec 18             	sub    $0x18,%esp
 8048f77:	e8 98 04 00 00       	call   8049414 <read_line>
 8048f7c:	c7 44 24 08 0a 00 00 	movl   $0xa,0x8(%esp)
 8048f83:	00 
 8048f84:	c7 44 24 04 00 00 00 	movl   $0x0,0x4(%esp)
 8048f8b:	00 
 8048f8c:	89 04 24             	mov    %eax,(%esp)
 8048f8f:	e8 ac f9 ff ff       	call   8048940 <strtol@plt>
 8048f94:	89 c3                	mov    %eax,%ebx
 8048f96:	8d 40 ff             	lea    -0x1(%eax),%eax
 8048f99:	3d e8 03 00 00       	cmp    $0x3e8,%eax
 8048f9e:	76 05                	jbe    8048fa5 <secret_phase+0x32>
 8048fa0:	e8 e0 03 00 00       	call   8049385 <explode_bomb>
 8048fa5:	89 5c 24 04          	mov    %ebx,0x4(%esp)
 8048fa9:	c7 04 24 c0 c0 04 08 	movl   $0x804c0c0,(%esp)
 8048fb0:	e8 6d ff ff ff       	call   8048f22 <fun7>
 8048fb5:	83 f8 03             	cmp    $0x3,%eax
 8048fb8:	74 05                	je     8048fbf <secret_phase+0x4c>
 8048fba:	e8 c6 03 00 00       	call   8049385 <explode_bomb>
 8048fbf:	c7 04 24 00 a4 04 08 	movl   $0x804a400,(%esp)
 8048fc6:	e8 85 f8 ff ff       	call   8048850 <puts@plt>
 8048fcb:	e8 3e 05 00 00       	call   804950e <phase_defused>
 8048fd0:	83 c4 18             	add    $0x18,%esp
 8048fd3:	5b                   	pop    %ebx
 8048fd4:	c3                   	ret    
 8048fd5:	66 90                	xchg   %ax,%ax
 8048fd7:	66 90                	xchg   %ax,%ax
 8048fd9:	66 90                	xchg   %ax,%ax
 8048fdb:	66 90                	xchg   %ax,%ax
 8048fdd:	66 90                	xchg   %ax,%ax
 8048fdf:	90                   	nop

08048fe0 <sig_handler>:
 8048fe0:	83 ec 1c             	sub    $0x1c,%esp
 8048fe3:	c7 04 24 60 a4 04 08 	movl   $0x804a460,(%esp)
 8048fea:	e8 61 f8 ff ff       	call   8048850 <puts@plt>
 8048fef:	c7 04 24 03 00 00 00 	movl   $0x3,(%esp)
 8048ff6:	e8 f5 f7 ff ff       	call   80487f0 <sleep@plt>
 8048ffb:	c7 44 24 04 1d a6 04 	movl   $0x804a61d,0x4(%esp)
 8049002:	08 
 8049003:	c7 04 24 01 00 00 00 	movl   $0x1,(%esp)
 804900a:	e8 f1 f8 ff ff       	call   8048900 <__printf_chk@plt>
 804900f:	a1 00 c8 04 08       	mov    0x804c800,%eax
 8049014:	89 04 24             	mov    %eax,(%esp)
 8049017:	e8 a4 f7 ff ff       	call   80487c0 <fflush@plt>
 804901c:	c7 04 24 01 00 00 00 	movl   $0x1,(%esp)
 8049023:	e8 c8 f7 ff ff       	call   80487f0 <sleep@plt>
 8049028:	c7 04 24 25 a6 04 08 	movl   $0x804a625,(%esp)
 804902f:	e8 1c f8 ff ff       	call   8048850 <puts@plt>
 8049034:	c7 04 24 10 00 00 00 	movl   $0x10,(%esp)
 804903b:	e8 50 f8 ff ff       	call   8048890 <exit@plt>

08049040 <invalid_phase>:
 8049040:	83 ec 1c             	sub    $0x1c,%esp
 8049043:	8b 44 24 20          	mov    0x20(%esp),%eax
 8049047:	89 44 24 08          	mov    %eax,0x8(%esp)
 804904b:	c7 44 24 04 2d a6 04 	movl   $0x804a62d,0x4(%esp)
 8049052:	08 
 8049053:	c7 04 24 01 00 00 00 	movl   $0x1,(%esp)
 804905a:	e8 a1 f8 ff ff       	call   8048900 <__printf_chk@plt>
 804905f:	c7 04 24 08 00 00 00 	movl   $0x8,(%esp)
 8049066:	e8 25 f8 ff ff       	call   8048890 <exit@plt>

0804906b <string_length>:
 804906b:	8b 54 24 04          	mov    0x4(%esp),%edx
 804906f:	80 3a 00             	cmpb   $0x0,(%edx)
 8049072:	74 10                	je     8049084 <string_length+0x19>
 8049074:	b8 00 00 00 00       	mov    $0x0,%eax
 8049079:	83 c0 01             	add    $0x1,%eax
 804907c:	80 3c 02 00          	cmpb   $0x0,(%edx,%eax,1)
 8049080:	75 f7                	jne    8049079 <string_length+0xe>
 8049082:	f3 c3                	repz ret 
 8049084:	b8 00 00 00 00       	mov    $0x0,%eax
 8049089:	c3                   	ret    

0804908a <strings_not_equal>:
 804908a:	57                   	push   %edi
 804908b:	56                   	push   %esi
 804908c:	53                   	push   %ebx
 804908d:	83 ec 04             	sub    $0x4,%esp
 8049090:	8b 5c 24 14          	mov    0x14(%esp),%ebx
 8049094:	8b 74 24 18          	mov    0x18(%esp),%esi
 8049098:	89 1c 24             	mov    %ebx,(%esp)
 804909b:	e8 cb ff ff ff       	call   804906b <string_length>
 80490a0:	89 c7                	mov    %eax,%edi
 80490a2:	89 34 24             	mov    %esi,(%esp)
 80490a5:	e8 c1 ff ff ff       	call   804906b <string_length>
 80490aa:	ba 01 00 00 00       	mov    $0x1,%edx
 80490af:	39 c7                	cmp    %eax,%edi
 80490b1:	75 3a                	jne    80490ed <strings_not_equal+0x63>
 80490b3:	0f b6 03             	movzbl (%ebx),%eax
 80490b6:	84 c0                	test   %al,%al
 80490b8:	74 20                	je     80490da <strings_not_equal+0x50>
 80490ba:	3a 06                	cmp    (%esi),%al
 80490bc:	74 08                	je     80490c6 <strings_not_equal+0x3c>
 80490be:	66 90                	xchg   %ax,%ax
 80490c0:	eb 1f                	jmp    80490e1 <strings_not_equal+0x57>
 80490c2:	3a 06                	cmp    (%esi),%al
 80490c4:	75 22                	jne    80490e8 <strings_not_equal+0x5e>
 80490c6:	83 c3 01             	add    $0x1,%ebx
 80490c9:	83 c6 01             	add    $0x1,%esi
 80490cc:	0f b6 03             	movzbl (%ebx),%eax
 80490cf:	84 c0                	test   %al,%al
 80490d1:	75 ef                	jne    80490c2 <strings_not_equal+0x38>
 80490d3:	ba 00 00 00 00       	mov    $0x0,%edx
 80490d8:	eb 13                	jmp    80490ed <strings_not_equal+0x63>
 80490da:	ba 00 00 00 00       	mov    $0x0,%edx
 80490df:	eb 0c                	jmp    80490ed <strings_not_equal+0x63>
 80490e1:	ba 01 00 00 00       	mov    $0x1,%edx
 80490e6:	eb 05                	jmp    80490ed <strings_not_equal+0x63>
 80490e8:	ba 01 00 00 00       	mov    $0x1,%edx
 80490ed:	89 d0                	mov    %edx,%eax
 80490ef:	83 c4 04             	add    $0x4,%esp
 80490f2:	5b                   	pop    %ebx
 80490f3:	5e                   	pop    %esi
 80490f4:	5f                   	pop    %edi
 80490f5:	c3                   	ret    

080490f6 <initialize_bomb>:
 80490f6:	56                   	push   %esi
 80490f7:	53                   	push   %ebx
 80490f8:	81 ec 64 20 00 00    	sub    $0x2064,%esp
 80490fe:	65 a1 14 00 00 00    	mov    %gs:0x14,%eax
 8049104:	89 84 24 5c 20 00 00 	mov    %eax,0x205c(%esp)
 804910b:	31 c0                	xor    %eax,%eax
 804910d:	c7 44 24 04 e0 8f 04 	movl   $0x8048fe0,0x4(%esp)
 8049114:	08 
 8049115:	c7 04 24 02 00 00 00 	movl   $0x2,(%esp)
 804911c:	e8 bf f6 ff ff       	call   80487e0 <signal@plt>
 8049121:	c7 44 24 04 40 00 00 	movl   $0x40,0x4(%esp)
 8049128:	00 
 8049129:	8d 44 24 1c          	lea    0x1c(%esp),%eax
 804912d:	89 04 24             	mov    %eax,(%esp)
 8049130:	e8 fb f6 ff ff       	call   8048830 <gethostname@plt>
 8049135:	85 c0                	test   %eax,%eax
 8049137:	75 14                	jne    804914d <initialize_bomb+0x57>
 8049139:	a1 e0 c5 04 08       	mov    0x804c5e0,%eax
 804913e:	bb 00 00 00 00       	mov    $0x0,%ebx
 8049143:	8d 74 24 1c          	lea    0x1c(%esp),%esi
 8049147:	85 c0                	test   %eax,%eax
 8049149:	75 1a                	jne    8049165 <initialize_bomb+0x6f>
 804914b:	eb 60                	jmp    80491ad <initialize_bomb+0xb7>
 804914d:	c7 04 24 98 a4 04 08 	movl   $0x804a498,(%esp)
 8049154:	e8 f7 f6 ff ff       	call   8048850 <puts@plt>
 8049159:	c7 04 24 08 00 00 00 	movl   $0x8,(%esp)
 8049160:	e8 2b f7 ff ff       	call   8048890 <exit@plt>
 8049165:	89 74 24 04          	mov    %esi,0x4(%esp)
 8049169:	89 04 24             	mov    %eax,(%esp)
 804916c:	e8 4f f7 ff ff       	call   80488c0 <strcasecmp@plt>
 8049171:	85 c0                	test   %eax,%eax
 8049173:	74 50                	je     80491c5 <initialize_bomb+0xcf>
 8049175:	83 c3 01             	add    $0x1,%ebx
 8049178:	8b 04 9d e0 c5 04 08 	mov    0x804c5e0(,%ebx,4),%eax
 804917f:	85 c0                	test   %eax,%eax
 8049181:	75 e2                	jne    8049165 <initialize_bomb+0x6f>
 8049183:	eb 28                	jmp    80491ad <initialize_bomb+0xb7>
 8049185:	8d 44 24 5c          	lea    0x5c(%esp),%eax
 8049189:	89 44 24 08          	mov    %eax,0x8(%esp)
 804918d:	c7 44 24 04 3e a6 04 	movl   $0x804a63e,0x4(%esp)
 8049194:	08 
 8049195:	c7 04 24 01 00 00 00 	movl   $0x1,(%esp)
 804919c:	e8 5f f7 ff ff       	call   8048900 <__printf_chk@plt>
 80491a1:	c7 04 24 08 00 00 00 	movl   $0x8,(%esp)
 80491a8:	e8 e3 f6 ff ff       	call   8048890 <exit@plt>
 80491ad:	c7 04 24 d0 a4 04 08 	movl   $0x804a4d0,(%esp)
 80491b4:	e8 97 f6 ff ff       	call   8048850 <puts@plt>
 80491b9:	c7 04 24 08 00 00 00 	movl   $0x8,(%esp)
 80491c0:	e8 cb f6 ff ff       	call   8048890 <exit@plt>
 80491c5:	8d 44 24 5c          	lea    0x5c(%esp),%eax
 80491c9:	89 04 24             	mov    %eax,(%esp)
 80491cc:	e8 8d 0d 00 00       	call   8049f5e <init_driver>
 80491d1:	85 c0                	test   %eax,%eax
 80491d3:	78 b0                	js     8049185 <initialize_bomb+0x8f>
 80491d5:	8b 84 24 5c 20 00 00 	mov    0x205c(%esp),%eax
 80491dc:	65 33 05 14 00 00 00 	xor    %gs:0x14,%eax
 80491e3:	74 05                	je     80491ea <initialize_bomb+0xf4>
 80491e5:	e8 26 f6 ff ff       	call   8048810 <__stack_chk_fail@plt>
 80491ea:	81 c4 64 20 00 00    	add    $0x2064,%esp
 80491f0:	5b                   	pop    %ebx
 80491f1:	5e                   	pop    %esi
 80491f2:	c3                   	ret    

080491f3 <initialize_bomb_solve>:
 80491f3:	f3 c3                	repz ret 

080491f5 <blank_line>:
 80491f5:	56                   	push   %esi
 80491f6:	53                   	push   %ebx
 80491f7:	83 ec 04             	sub    $0x4,%esp
 80491fa:	8b 5c 24 10          	mov    0x10(%esp),%ebx
 80491fe:	eb 16                	jmp    8049216 <blank_line+0x21>
 8049200:	e8 6b f7 ff ff       	call   8048970 <__ctype_b_loc@plt>
 8049205:	83 c3 01             	add    $0x1,%ebx
 8049208:	89 f2                	mov    %esi,%edx
 804920a:	0f be f2             	movsbl %dl,%esi
 804920d:	8b 00                	mov    (%eax),%eax
 804920f:	f6 44 70 01 20       	testb  $0x20,0x1(%eax,%esi,2)
 8049214:	74 10                	je     8049226 <blank_line+0x31>
 8049216:	0f b6 33             	movzbl (%ebx),%esi
 8049219:	89 f0                	mov    %esi,%eax
 804921b:	84 c0                	test   %al,%al
 804921d:	75 e1                	jne    8049200 <blank_line+0xb>
 804921f:	b8 01 00 00 00       	mov    $0x1,%eax
 8049224:	eb 05                	jmp    804922b <blank_line+0x36>
 8049226:	b8 00 00 00 00       	mov    $0x0,%eax
 804922b:	83 c4 04             	add    $0x4,%esp
 804922e:	5b                   	pop    %ebx
 804922f:	5e                   	pop    %esi
 8049230:	c3                   	ret    

08049231 <skip>:
 8049231:	53                   	push   %ebx
 8049232:	83 ec 18             	sub    $0x18,%esp
 8049235:	a1 0c c8 04 08       	mov    0x804c80c,%eax
 804923a:	89 44 24 08          	mov    %eax,0x8(%esp)
 804923e:	c7 44 24 04 50 00 00 	movl   $0x50,0x4(%esp)
 8049245:	00 
 8049246:	a1 08 c8 04 08       	mov    0x804c808,%eax
 804924b:	8d 04 80             	lea    (%eax,%eax,4),%eax
 804924e:	c1 e0 04             	shl    $0x4,%eax
 8049251:	05 20 c8 04 08       	add    $0x804c820,%eax
 8049256:	89 04 24             	mov    %eax,(%esp)
 8049259:	e8 72 f5 ff ff       	call   80487d0 <fgets@plt>
 804925e:	89 c3                	mov    %eax,%ebx
 8049260:	85 c0                	test   %eax,%eax
 8049262:	74 0c                	je     8049270 <skip+0x3f>
 8049264:	89 04 24             	mov    %eax,(%esp)
 8049267:	e8 89 ff ff ff       	call   80491f5 <blank_line>
 804926c:	85 c0                	test   %eax,%eax
 804926e:	75 c5                	jne    8049235 <skip+0x4>
 8049270:	89 d8                	mov    %ebx,%eax
 8049272:	83 c4 18             	add    $0x18,%esp
 8049275:	5b                   	pop    %ebx
 8049276:	c3                   	ret    

08049277 <send_msg>:
 8049277:	57                   	push   %edi
 8049278:	53                   	push   %ebx
 8049279:	81 ec 34 40 00 00    	sub    $0x4034,%esp
 804927f:	65 a1 14 00 00 00    	mov    %gs:0x14,%eax
 8049285:	89 84 24 2c 40 00 00 	mov    %eax,0x402c(%esp)
 804928c:	31 c0                	xor    %eax,%eax
 804928e:	8b 15 08 c8 04 08    	mov    0x804c808,%edx
 8049294:	8d 5c 92 fb          	lea    -0x5(%edx,%edx,4),%ebx
 8049298:	c1 e3 04             	shl    $0x4,%ebx
 804929b:	81 c3 20 c8 04 08    	add    $0x804c820,%ebx
 80492a1:	89 df                	mov    %ebx,%edi
 80492a3:	b9 ff ff ff ff       	mov    $0xffffffff,%ecx
 80492a8:	f2 ae                	repnz scas %es:(%edi),%al
 80492aa:	f7 d1                	not    %ecx
 80492ac:	83 c1 63             	add    $0x63,%ecx
 80492af:	81 f9 00 20 00 00    	cmp    $0x2000,%ecx
 80492b5:	76 20                	jbe    80492d7 <send_msg+0x60>
 80492b7:	c7 44 24 04 08 a5 04 	movl   $0x804a508,0x4(%esp)
 80492be:	08 
 80492bf:	c7 04 24 01 00 00 00 	movl   $0x1,(%esp)
 80492c6:	e8 35 f6 ff ff       	call   8048900 <__printf_chk@plt>
 80492cb:	c7 04 24 08 00 00 00 	movl   $0x8,(%esp)
 80492d2:	e8 b9 f5 ff ff       	call   8048890 <exit@plt>
 80492d7:	83 bc 24 40 40 00 00 	cmpl   $0x0,0x4040(%esp)
 80492de:	00 
 80492df:	b8 58 a6 04 08       	mov    $0x804a658,%eax
 80492e4:	b9 60 a6 04 08       	mov    $0x804a660,%ecx
 80492e9:	0f 44 c1             	cmove  %ecx,%eax
 80492ec:	89 5c 24 1c          	mov    %ebx,0x1c(%esp)
 80492f0:	89 54 24 18          	mov    %edx,0x18(%esp)
 80492f4:	89 44 24 14          	mov    %eax,0x14(%esp)
 80492f8:	a1 c0 c5 04 08       	mov    0x804c5c0,%eax
 80492fd:	89 44 24 10          	mov    %eax,0x10(%esp)
 8049301:	c7 44 24 0c 69 a6 04 	movl   $0x804a669,0xc(%esp)
 8049308:	08 
 8049309:	c7 44 24 08 00 20 00 	movl   $0x2000,0x8(%esp)
 8049310:	00 
 8049311:	c7 44 24 04 01 00 00 	movl   $0x1,0x4(%esp)
 8049318:	00 
 8049319:	8d 5c 24 2c          	lea    0x2c(%esp),%ebx
 804931d:	89 1c 24             	mov    %ebx,(%esp)
 8049320:	e8 5b f6 ff ff       	call   8048980 <__sprintf_chk@plt>
 8049325:	8d 84 24 2c 20 00 00 	lea    0x202c(%esp),%eax
 804932c:	89 44 24 0c          	mov    %eax,0xc(%esp)
 8049330:	c7 44 24 08 00 00 00 	movl   $0x0,0x8(%esp)
 8049337:	00 
 8049338:	89 5c 24 04          	mov    %ebx,0x4(%esp)
 804933c:	c7 04 24 c0 c1 04 08 	movl   $0x804c1c0,(%esp)
 8049343:	e8 24 0e 00 00       	call   804a16c <driver_post>
 8049348:	85 c0                	test   %eax,%eax
 804934a:	79 1b                	jns    8049367 <send_msg+0xf0>
 804934c:	8d 84 24 2c 20 00 00 	lea    0x202c(%esp),%eax
 8049353:	89 04 24             	mov    %eax,(%esp)
 8049356:	e8 f5 f4 ff ff       	call   8048850 <puts@plt>
 804935b:	c7 04 24 00 00 00 00 	movl   $0x0,(%esp)
 8049362:	e8 29 f5 ff ff       	call   8048890 <exit@plt>
 8049367:	8b 84 24 2c 40 00 00 	mov    0x402c(%esp),%eax
 804936e:	65 33 05 14 00 00 00 	xor    %gs:0x14,%eax
 8049375:	74 05                	je     804937c <send_msg+0x105>
 8049377:	e8 94 f4 ff ff       	call   8048810 <__stack_chk_fail@plt>
 804937c:	81 c4 34 40 00 00    	add    $0x4034,%esp
 8049382:	5b                   	pop    %ebx
 8049383:	5f                   	pop    %edi
 8049384:	c3                   	ret    

08049385 <explode_bomb>:
 8049385:	83 ec 1c             	sub    $0x1c,%esp
 8049388:	c7 04 24 75 a6 04 08 	movl   $0x804a675,(%esp)
 804938f:	e8 bc f4 ff ff       	call   8048850 <puts@plt>
 8049394:	c7 04 24 7e a6 04 08 	movl   $0x804a67e,(%esp)
 804939b:	e8 b0 f4 ff ff       	call   8048850 <puts@plt>
 80493a0:	c7 04 24 00 00 00 00 	movl   $0x0,(%esp)
 80493a7:	e8 cb fe ff ff       	call   8049277 <send_msg>
 80493ac:	c7 04 24 2c a5 04 08 	movl   $0x804a52c,(%esp)
 80493b3:	e8 98 f4 ff ff       	call   8048850 <puts@plt>
 80493b8:	c7 04 24 08 00 00 00 	movl   $0x8,(%esp)
 80493bf:	e8 cc f4 ff ff       	call   8048890 <exit@plt>

080493c4 <read_six_numbers>:
 80493c4:	83 ec 2c             	sub    $0x2c,%esp
 80493c7:	8b 44 24 34          	mov    0x34(%esp),%eax
 80493cb:	8d 50 14             	lea    0x14(%eax),%edx
 80493ce:	89 54 24 1c          	mov    %edx,0x1c(%esp)
 80493d2:	8d 50 10             	lea    0x10(%eax),%edx
 80493d5:	89 54 24 18          	mov    %edx,0x18(%esp)
 80493d9:	8d 50 0c             	lea    0xc(%eax),%edx
 80493dc:	89 54 24 14          	mov    %edx,0x14(%esp)
 80493e0:	8d 50 08             	lea    0x8(%eax),%edx
 80493e3:	89 54 24 10          	mov    %edx,0x10(%esp)
 80493e7:	8d 50 04             	lea    0x4(%eax),%edx
 80493ea:	89 54 24 0c          	mov    %edx,0xc(%esp)
 80493ee:	89 44 24 08          	mov    %eax,0x8(%esp)
 80493f2:	c7 44 24 04 95 a6 04 	movl   $0x804a695,0x4(%esp)
 80493f9:	08 
 80493fa:	8b 44 24 30          	mov    0x30(%esp),%eax
 80493fe:	89 04 24             	mov    %eax,(%esp)
 8049401:	e8 ca f4 ff ff       	call   80488d0 <__isoc99_sscanf@plt>
 8049406:	83 f8 05             	cmp    $0x5,%eax
 8049409:	7f 05                	jg     8049410 <read_six_numbers+0x4c>
 804940b:	e8 75 ff ff ff       	call   8049385 <explode_bomb>
 8049410:	83 c4 2c             	add    $0x2c,%esp
 8049413:	c3                   	ret    

08049414 <read_line>:
 8049414:	57                   	push   %edi
 8049415:	56                   	push   %esi
 8049416:	53                   	push   %ebx
 8049417:	83 ec 10             	sub    $0x10,%esp
 804941a:	e8 12 fe ff ff       	call   8049231 <skip>
 804941f:	85 c0                	test   %eax,%eax
 8049421:	75 6c                	jne    804948f <read_line+0x7b>
 8049423:	a1 e4 c7 04 08       	mov    0x804c7e4,%eax
 8049428:	39 05 0c c8 04 08    	cmp    %eax,0x804c80c
 804942e:	75 18                	jne    8049448 <read_line+0x34>
 8049430:	c7 04 24 a7 a6 04 08 	movl   $0x804a6a7,(%esp)
 8049437:	e8 14 f4 ff ff       	call   8048850 <puts@plt>
 804943c:	c7 04 24 08 00 00 00 	movl   $0x8,(%esp)
 8049443:	e8 48 f4 ff ff       	call   8048890 <exit@plt>
 8049448:	c7 04 24 c5 a6 04 08 	movl   $0x804a6c5,(%esp)
 804944f:	e8 ec f3 ff ff       	call   8048840 <getenv@plt>
 8049454:	85 c0                	test   %eax,%eax
 8049456:	74 0c                	je     8049464 <read_line+0x50>
 8049458:	c7 04 24 00 00 00 00 	movl   $0x0,(%esp)
 804945f:	e8 2c f4 ff ff       	call   8048890 <exit@plt>
 8049464:	a1 e4 c7 04 08       	mov    0x804c7e4,%eax
 8049469:	a3 0c c8 04 08       	mov    %eax,0x804c80c
 804946e:	e8 be fd ff ff       	call   8049231 <skip>
 8049473:	85 c0                	test   %eax,%eax
 8049475:	75 18                	jne    804948f <read_line+0x7b>
 8049477:	c7 04 24 a7 a6 04 08 	movl   $0x804a6a7,(%esp)
 804947e:	e8 cd f3 ff ff       	call   8048850 <puts@plt>
 8049483:	c7 04 24 00 00 00 00 	movl   $0x0,(%esp)
 804948a:	e8 01 f4 ff ff       	call   8048890 <exit@plt>
 804948f:	8b 15 08 c8 04 08    	mov    0x804c808,%edx
 8049495:	8d 1c 92             	lea    (%edx,%edx,4),%ebx
 8049498:	c1 e3 04             	shl    $0x4,%ebx
 804949b:	81 c3 20 c8 04 08    	add    $0x804c820,%ebx
 80494a1:	89 df                	mov    %ebx,%edi
 80494a3:	b8 00 00 00 00       	mov    $0x0,%eax
 80494a8:	b9 ff ff ff ff       	mov    $0xffffffff,%ecx
 80494ad:	f2 ae                	repnz scas %es:(%edi),%al
 80494af:	f7 d1                	not    %ecx
 80494b1:	83 e9 01             	sub    $0x1,%ecx
 80494b4:	83 f9 4e             	cmp    $0x4e,%ecx
 80494b7:	7e 35                	jle    80494ee <read_line+0xda>
 80494b9:	c7 04 24 d0 a6 04 08 	movl   $0x804a6d0,(%esp)
 80494c0:	e8 8b f3 ff ff       	call   8048850 <puts@plt>
 80494c5:	a1 08 c8 04 08       	mov    0x804c808,%eax
 80494ca:	8d 50 01             	lea    0x1(%eax),%edx
 80494cd:	89 15 08 c8 04 08    	mov    %edx,0x804c808
 80494d3:	6b c0 50             	imul   $0x50,%eax,%eax
 80494d6:	05 20 c8 04 08       	add    $0x804c820,%eax
 80494db:	be eb a6 04 08       	mov    $0x804a6eb,%esi
 80494e0:	b9 04 00 00 00       	mov    $0x4,%ecx
 80494e5:	89 c7                	mov    %eax,%edi
 80494e7:	f3 a5                	rep movsl %ds:(%esi),%es:(%edi)
 80494e9:	e8 97 fe ff ff       	call   8049385 <explode_bomb>
 80494ee:	8d 04 92             	lea    (%edx,%edx,4),%eax
 80494f1:	c1 e0 04             	shl    $0x4,%eax
 80494f4:	c6 84 01 1f c8 04 08 	movb   $0x0,0x804c81f(%ecx,%eax,1)
 80494fb:	00 
 80494fc:	83 c2 01             	add    $0x1,%edx
 80494ff:	89 15 08 c8 04 08    	mov    %edx,0x804c808
 8049505:	89 d8                	mov    %ebx,%eax
 8049507:	83 c4 10             	add    $0x10,%esp
 804950a:	5b                   	pop    %ebx
 804950b:	5e                   	pop    %esi
 804950c:	5f                   	pop    %edi
 804950d:	c3                   	ret    

0804950e <phase_defused>:
 804950e:	81 ec 8c 00 00 00    	sub    $0x8c,%esp
 8049514:	65 a1 14 00 00 00    	mov    %gs:0x14,%eax
 804951a:	89 44 24 7c          	mov    %eax,0x7c(%esp)
 804951e:	31 c0                	xor    %eax,%eax
 8049520:	c7 04 24 01 00 00 00 	movl   $0x1,(%esp)
 8049527:	e8 4b fd ff ff       	call   8049277 <send_msg>
 804952c:	83 3d 08 c8 04 08 06 	cmpl   $0x6,0x804c808
 8049533:	75 7e                	jne    80495b3 <phase_defused+0xa5>
 8049535:	8d 44 24 2c          	lea    0x2c(%esp),%eax
 8049539:	89 44 24 10          	mov    %eax,0x10(%esp)
 804953d:	8d 44 24 28          	lea    0x28(%esp),%eax
 8049541:	89 44 24 0c          	mov    %eax,0xc(%esp)
 8049545:	8d 44 24 24          	lea    0x24(%esp),%eax
 8049549:	89 44 24 08          	mov    %eax,0x8(%esp)
 804954d:	c7 44 24 04 fb a6 04 	movl   $0x804a6fb,0x4(%esp)
 8049554:	08 
 8049555:	c7 04 24 10 c9 04 08 	movl   $0x804c910,(%esp)
 804955c:	e8 6f f3 ff ff       	call   80488d0 <__isoc99_sscanf@plt>
 8049561:	83 f8 03             	cmp    $0x3,%eax
 8049564:	75 35                	jne    804959b <phase_defused+0x8d>
 8049566:	c7 44 24 04 04 a7 04 	movl   $0x804a704,0x4(%esp)
 804956d:	08 
 804956e:	8d 44 24 2c          	lea    0x2c(%esp),%eax
 8049572:	89 04 24             	mov    %eax,(%esp)
 8049575:	e8 10 fb ff ff       	call   804908a <strings_not_equal>
 804957a:	85 c0                	test   %eax,%eax
 804957c:	75 1d                	jne    804959b <phase_defused+0x8d>
 804957e:	c7 04 24 50 a5 04 08 	movl   $0x804a550,(%esp)
 8049585:	e8 c6 f2 ff ff       	call   8048850 <puts@plt>
 804958a:	c7 04 24 78 a5 04 08 	movl   $0x804a578,(%esp)
 8049591:	e8 ba f2 ff ff       	call   8048850 <puts@plt>
 8049596:	e8 d8 f9 ff ff       	call   8048f73 <secret_phase>
 804959b:	c7 04 24 b0 a5 04 08 	movl   $0x804a5b0,(%esp)
 80495a2:	e8 a9 f2 ff ff       	call   8048850 <puts@plt>
 80495a7:	c7 04 24 dc a5 04 08 	movl   $0x804a5dc,(%esp)
 80495ae:	e8 9d f2 ff ff       	call   8048850 <puts@plt>
 80495b3:	8b 44 24 7c          	mov    0x7c(%esp),%eax
 80495b7:	65 33 05 14 00 00 00 	xor    %gs:0x14,%eax
 80495be:	74 05                	je     80495c5 <phase_defused+0xb7>
 80495c0:	e8 4b f2 ff ff       	call   8048810 <__stack_chk_fail@plt>
 80495c5:	81 c4 8c 00 00 00    	add    $0x8c,%esp
 80495cb:	c3                   	ret    
 80495cc:	66 90                	xchg   %ax,%ax
 80495ce:	66 90                	xchg   %ax,%ax

080495d0 <sigalrm_handler>:
 80495d0:	83 ec 1c             	sub    $0x1c,%esp
 80495d3:	c7 44 24 0c 00 00 00 	movl   $0x0,0xc(%esp)
 80495da:	00 
 80495db:	c7 44 24 08 1c a7 04 	movl   $0x804a71c,0x8(%esp)
 80495e2:	08 
 80495e3:	c7 44 24 04 01 00 00 	movl   $0x1,0x4(%esp)
 80495ea:	00 
 80495eb:	a1 e0 c7 04 08       	mov    0x804c7e0,%eax
 80495f0:	89 04 24             	mov    %eax,(%esp)
 80495f3:	e8 28 f3 ff ff       	call   8048920 <__fprintf_chk@plt>
 80495f8:	c7 04 24 01 00 00 00 	movl   $0x1,(%esp)
 80495ff:	e8 8c f2 ff ff       	call   8048890 <exit@plt>

08049604 <rio_readlineb>:
 8049604:	55                   	push   %ebp
 8049605:	57                   	push   %edi
 8049606:	56                   	push   %esi
 8049607:	53                   	push   %ebx
 8049608:	83 ec 3c             	sub    $0x3c,%esp
 804960b:	89 d5                	mov    %edx,%ebp
 804960d:	83 f9 01             	cmp    $0x1,%ecx
 8049610:	0f 86 d0 00 00 00    	jbe    80496e6 <rio_readlineb+0xe2>
 8049616:	89 c3                	mov    %eax,%ebx
 8049618:	89 4c 24 1c          	mov    %ecx,0x1c(%esp)
 804961c:	c7 44 24 10 01 00 00 	movl   $0x1,0x10(%esp)
 8049623:	00 
 8049624:	8d 78 0c             	lea    0xc(%eax),%edi
 8049627:	eb 33                	jmp    804965c <rio_readlineb+0x58>
 8049629:	c7 44 24 08 00 20 00 	movl   $0x2000,0x8(%esp)
 8049630:	00 
 8049631:	89 7c 24 04          	mov    %edi,0x4(%esp)
 8049635:	8b 03                	mov    (%ebx),%eax
 8049637:	89 04 24             	mov    %eax,(%esp)
 804963a:	e8 71 f1 ff ff       	call   80487b0 <read@plt>
 804963f:	89 43 04             	mov    %eax,0x4(%ebx)
 8049642:	85 c0                	test   %eax,%eax
 8049644:	79 0f                	jns    8049655 <rio_readlineb+0x51>
 8049646:	e8 a5 f2 ff ff       	call   80488f0 <__errno_location@plt>
 804964b:	83 38 04             	cmpl   $0x4,(%eax)
 804964e:	74 0c                	je     804965c <rio_readlineb+0x58>
 8049650:	e9 a3 00 00 00       	jmp    80496f8 <rio_readlineb+0xf4>
 8049655:	85 c0                	test   %eax,%eax
 8049657:	74 6e                	je     80496c7 <rio_readlineb+0xc3>
 8049659:	89 7b 08             	mov    %edi,0x8(%ebx)
 804965c:	8b 73 04             	mov    0x4(%ebx),%esi
 804965f:	85 f6                	test   %esi,%esi
 8049661:	7e c6                	jle    8049629 <rio_readlineb+0x25>
 8049663:	85 f6                	test   %esi,%esi
 8049665:	0f 95 c0             	setne  %al
 8049668:	0f b6 c0             	movzbl %al,%eax
 804966b:	89 44 24 14          	mov    %eax,0x14(%esp)
 804966f:	8b 4b 08             	mov    0x8(%ebx),%ecx
 8049672:	c7 44 24 0c 01 00 00 	movl   $0x1,0xc(%esp)
 8049679:	00 
 804967a:	89 44 24 08          	mov    %eax,0x8(%esp)
 804967e:	89 4c 24 18          	mov    %ecx,0x18(%esp)
 8049682:	89 4c 24 04          	mov    %ecx,0x4(%esp)
 8049686:	8d 54 24 2f          	lea    0x2f(%esp),%edx
 804968a:	89 14 24             	mov    %edx,(%esp)
 804968d:	e8 de f1 ff ff       	call   8048870 <__memcpy_chk@plt>
 8049692:	8b 4c 24 18          	mov    0x18(%esp),%ecx
 8049696:	8b 54 24 14          	mov    0x14(%esp),%edx
 804969a:	01 d1                	add    %edx,%ecx
 804969c:	89 4b 08             	mov    %ecx,0x8(%ebx)
 804969f:	29 d6                	sub    %edx,%esi
 80496a1:	89 73 04             	mov    %esi,0x4(%ebx)
 80496a4:	83 fa 01             	cmp    $0x1,%edx
 80496a7:	75 11                	jne    80496ba <rio_readlineb+0xb6>
 80496a9:	83 c5 01             	add    $0x1,%ebp
 80496ac:	0f b6 44 24 2f       	movzbl 0x2f(%esp),%eax
 80496b1:	88 45 ff             	mov    %al,-0x1(%ebp)
 80496b4:	3c 0a                	cmp    $0xa,%al
 80496b6:	75 1a                	jne    80496d2 <rio_readlineb+0xce>
 80496b8:	eb 34                	jmp    80496ee <rio_readlineb+0xea>
 80496ba:	83 7c 24 14 00       	cmpl   $0x0,0x14(%esp)
 80496bf:	75 3e                	jne    80496ff <rio_readlineb+0xfb>
 80496c1:	8b 44 24 10          	mov    0x10(%esp),%eax
 80496c5:	eb 04                	jmp    80496cb <rio_readlineb+0xc7>
 80496c7:	8b 44 24 10          	mov    0x10(%esp),%eax
 80496cb:	83 f8 01             	cmp    $0x1,%eax
 80496ce:	75 1e                	jne    80496ee <rio_readlineb+0xea>
 80496d0:	eb 34                	jmp    8049706 <rio_readlineb+0x102>
 80496d2:	83 44 24 10 01       	addl   $0x1,0x10(%esp)
 80496d7:	8b 44 24 1c          	mov    0x1c(%esp),%eax
 80496db:	39 44 24 10          	cmp    %eax,0x10(%esp)
 80496df:	74 0d                	je     80496ee <rio_readlineb+0xea>
 80496e1:	e9 76 ff ff ff       	jmp    804965c <rio_readlineb+0x58>
 80496e6:	c7 44 24 10 01 00 00 	movl   $0x1,0x10(%esp)
 80496ed:	00 
 80496ee:	c6 45 00 00          	movb   $0x0,0x0(%ebp)
 80496f2:	8b 44 24 10          	mov    0x10(%esp),%eax
 80496f6:	eb 13                	jmp    804970b <rio_readlineb+0x107>
 80496f8:	b8 ff ff ff ff       	mov    $0xffffffff,%eax
 80496fd:	eb 0c                	jmp    804970b <rio_readlineb+0x107>
 80496ff:	b8 ff ff ff ff       	mov    $0xffffffff,%eax
 8049704:	eb 05                	jmp    804970b <rio_readlineb+0x107>
 8049706:	b8 00 00 00 00       	mov    $0x0,%eax
 804970b:	83 c4 3c             	add    $0x3c,%esp
 804970e:	5b                   	pop    %ebx
 804970f:	5e                   	pop    %esi
 8049710:	5f                   	pop    %edi
 8049711:	5d                   	pop    %ebp
 8049712:	c3                   	ret    

08049713 <submitr>:
 8049713:	55                   	push   %ebp
 8049714:	57                   	push   %edi
 8049715:	56                   	push   %esi
 8049716:	53                   	push   %ebx
 8049717:	81 ec 7c a0 00 00    	sub    $0xa07c,%esp
 804971d:	8b b4 24 90 a0 00 00 	mov    0xa090(%esp),%esi
 8049724:	8b 84 24 98 a0 00 00 	mov    0xa098(%esp),%eax
 804972b:	89 44 24 28          	mov    %eax,0x28(%esp)
 804972f:	8b 84 24 9c a0 00 00 	mov    0xa09c(%esp),%eax
 8049736:	89 44 24 2c          	mov    %eax,0x2c(%esp)
 804973a:	8b 84 24 a0 a0 00 00 	mov    0xa0a0(%esp),%eax
 8049741:	89 44 24 30          	mov    %eax,0x30(%esp)
 8049745:	8b 9c 24 a4 a0 00 00 	mov    0xa0a4(%esp),%ebx
 804974c:	8b 84 24 a8 a0 00 00 	mov    0xa0a8(%esp),%eax
 8049753:	89 44 24 34          	mov    %eax,0x34(%esp)
 8049757:	65 a1 14 00 00 00    	mov    %gs:0x14,%eax
 804975d:	89 84 24 6c a0 00 00 	mov    %eax,0xa06c(%esp)
 8049764:	31 c0                	xor    %eax,%eax
 8049766:	c7 44 24 4c 00 00 00 	movl   $0x0,0x4c(%esp)
 804976d:	00 
 804976e:	c7 44 24 08 00 00 00 	movl   $0x0,0x8(%esp)
 8049775:	00 
 8049776:	c7 44 24 04 01 00 00 	movl   $0x1,0x4(%esp)
 804977d:	00 
 804977e:	c7 04 24 02 00 00 00 	movl   $0x2,(%esp)
 8049785:	e8 86 f1 ff ff       	call   8048910 <socket@plt>
 804978a:	89 c5                	mov    %eax,%ebp
 804978c:	85 c0                	test   %eax,%eax
 804978e:	79 52                	jns    80497e2 <submitr+0xcf>
 8049790:	8b 44 24 34          	mov    0x34(%esp),%eax
 8049794:	c7 00 45 72 72 6f    	movl   $0x6f727245,(%eax)
 804979a:	c7 40 04 72 3a 20 43 	movl   $0x43203a72,0x4(%eax)
 80497a1:	c7 40 08 6c 69 65 6e 	movl   $0x6e65696c,0x8(%eax)
 80497a8:	c7 40 0c 74 20 75 6e 	movl   $0x6e752074,0xc(%eax)
 80497af:	c7 40 10 61 62 6c 65 	movl   $0x656c6261,0x10(%eax)
 80497b6:	c7 40 14 20 74 6f 20 	movl   $0x206f7420,0x14(%eax)
 80497bd:	c7 40 18 63 72 65 61 	movl   $0x61657263,0x18(%eax)
 80497c4:	c7 40 1c 74 65 20 73 	movl   $0x73206574,0x1c(%eax)
 80497cb:	c7 40 20 6f 63 6b 65 	movl   $0x656b636f,0x20(%eax)
 80497d2:	66 c7 40 24 74 00    	movw   $0x74,0x24(%eax)
 80497d8:	b8 ff ff ff ff       	mov    $0xffffffff,%eax
 80497dd:	e9 37 06 00 00       	jmp    8049e19 <submitr+0x706>
 80497e2:	89 34 24             	mov    %esi,(%esp)
 80497e5:	e8 46 f1 ff ff       	call   8048930 <gethostbyname@plt>
 80497ea:	85 c0                	test   %eax,%eax
 80497ec:	75 6c                	jne    804985a <submitr+0x147>
 80497ee:	8b 44 24 34          	mov    0x34(%esp),%eax
 80497f2:	c7 00 45 72 72 6f    	movl   $0x6f727245,(%eax)
 80497f8:	c7 40 04 72 3a 20 44 	movl   $0x44203a72,0x4(%eax)
 80497ff:	c7 40 08 4e 53 20 69 	movl   $0x6920534e,0x8(%eax)
 8049806:	c7 40 0c 73 20 75 6e 	movl   $0x6e752073,0xc(%eax)
 804980d:	c7 40 10 61 62 6c 65 	movl   $0x656c6261,0x10(%eax)
 8049814:	c7 40 14 20 74 6f 20 	movl   $0x206f7420,0x14(%eax)
 804981b:	c7 40 18 72 65 73 6f 	movl   $0x6f736572,0x18(%eax)
 8049822:	c7 40 1c 6c 76 65 20 	movl   $0x2065766c,0x1c(%eax)
 8049829:	c7 40 20 73 65 72 76 	movl   $0x76726573,0x20(%eax)
 8049830:	c7 40 24 65 72 20 61 	movl   $0x61207265,0x24(%eax)
 8049837:	c7 40 28 64 64 72 65 	movl   $0x65726464,0x28(%eax)
 804983e:	66 c7 40 2c 73 73    	movw   $0x7373,0x2c(%eax)
 8049844:	c6 40 2e 00          	movb   $0x0,0x2e(%eax)
 8049848:	89 2c 24             	mov    %ebp,(%esp)
 804984b:	e8 10 f1 ff ff       	call   8048960 <close@plt>
 8049850:	b8 ff ff ff ff       	mov    $0xffffffff,%eax
 8049855:	e9 bf 05 00 00       	jmp    8049e19 <submitr+0x706>
 804985a:	8d 74 24 50          	lea    0x50(%esp),%esi
 804985e:	c7 44 24 50 00 00 00 	movl   $0x0,0x50(%esp)
 8049865:	00 
 8049866:	c7 44 24 54 00 00 00 	movl   $0x0,0x54(%esp)
 804986d:	00 
 804986e:	c7 44 24 58 00 00 00 	movl   $0x0,0x58(%esp)
 8049875:	00 
 8049876:	c7 44 24 5c 00 00 00 	movl   $0x0,0x5c(%esp)
 804987d:	00 
 804987e:	66 c7 44 24 50 02 00 	movw   $0x2,0x50(%esp)
 8049885:	c7 44 24 0c 0c 00 00 	movl   $0xc,0xc(%esp)
 804988c:	00 
 804988d:	8b 50 0c             	mov    0xc(%eax),%edx
 8049890:	89 54 24 08          	mov    %edx,0x8(%esp)
 8049894:	8b 40 10             	mov    0x10(%eax),%eax
 8049897:	8b 00                	mov    (%eax),%eax
 8049899:	89 44 24 04          	mov    %eax,0x4(%esp)
 804989d:	8d 44 24 54          	lea    0x54(%esp),%eax
 80498a1:	89 04 24             	mov    %eax,(%esp)
 80498a4:	e8 b7 ef ff ff       	call   8048860 <__memmove_chk@plt>
 80498a9:	0f b7 84 24 94 a0 00 	movzwl 0xa094(%esp),%eax
 80498b0:	00 
 80498b1:	66 c1 c8 08          	ror    $0x8,%ax
 80498b5:	66 89 44 24 52       	mov    %ax,0x52(%esp)
 80498ba:	c7 44 24 08 10 00 00 	movl   $0x10,0x8(%esp)
 80498c1:	00 
 80498c2:	89 74 24 04          	mov    %esi,0x4(%esp)
 80498c6:	89 2c 24             	mov    %ebp,(%esp)
 80498c9:	e8 82 f0 ff ff       	call   8048950 <connect@plt>
 80498ce:	85 c0                	test   %eax,%eax
 80498d0:	79 5e                	jns    8049930 <submitr+0x21d>
 80498d2:	8b 44 24 34          	mov    0x34(%esp),%eax
 80498d6:	c7 00 45 72 72 6f    	movl   $0x6f727245,(%eax)
 80498dc:	c7 40 04 72 3a 20 55 	movl   $0x55203a72,0x4(%eax)
 80498e3:	c7 40 08 6e 61 62 6c 	movl   $0x6c62616e,0x8(%eax)
 80498ea:	c7 40 0c 65 20 74 6f 	movl   $0x6f742065,0xc(%eax)
 80498f1:	c7 40 10 20 63 6f 6e 	movl   $0x6e6f6320,0x10(%eax)
 80498f8:	c7 40 14 6e 65 63 74 	movl   $0x7463656e,0x14(%eax)
 80498ff:	c7 40 18 20 74 6f 20 	movl   $0x206f7420,0x18(%eax)
 8049906:	c7 40 1c 74 68 65 20 	movl   $0x20656874,0x1c(%eax)
 804990d:	c7 40 20 73 65 72 76 	movl   $0x76726573,0x20(%eax)
 8049914:	66 c7 40 24 65 72    	movw   $0x7265,0x24(%eax)
 804991a:	c6 40 26 00          	movb   $0x0,0x26(%eax)
 804991e:	89 2c 24             	mov    %ebp,(%esp)
 8049921:	e8 3a f0 ff ff       	call   8048960 <close@plt>
 8049926:	b8 ff ff ff ff       	mov    $0xffffffff,%eax
 804992b:	e9 e9 04 00 00       	jmp    8049e19 <submitr+0x706>
 8049930:	ba ff ff ff ff       	mov    $0xffffffff,%edx
 8049935:	89 df                	mov    %ebx,%edi
 8049937:	b8 00 00 00 00       	mov    $0x0,%eax
 804993c:	89 d1                	mov    %edx,%ecx
 804993e:	f2 ae                	repnz scas %es:(%edi),%al
 8049940:	f7 d1                	not    %ecx
 8049942:	89 ce                	mov    %ecx,%esi
 8049944:	8b 7c 24 28          	mov    0x28(%esp),%edi
 8049948:	89 d1                	mov    %edx,%ecx
 804994a:	f2 ae                	repnz scas %es:(%edi),%al
 804994c:	89 4c 24 38          	mov    %ecx,0x38(%esp)
 8049950:	8b 7c 24 2c          	mov    0x2c(%esp),%edi
 8049954:	89 d1                	mov    %edx,%ecx
 8049956:	f2 ae                	repnz scas %es:(%edi),%al
 8049958:	f7 d1                	not    %ecx
 804995a:	89 4c 24 3c          	mov    %ecx,0x3c(%esp)
 804995e:	8b 7c 24 30          	mov    0x30(%esp),%edi
 8049962:	89 d1                	mov    %edx,%ecx
 8049964:	f2 ae                	repnz scas %es:(%edi),%al
 8049966:	8b 44 24 3c          	mov    0x3c(%esp),%eax
 804996a:	2b 44 24 38          	sub    0x38(%esp),%eax
 804996e:	29 c8                	sub    %ecx,%eax
 8049970:	89 c2                	mov    %eax,%edx
 8049972:	8d 44 76 fd          	lea    -0x3(%esi,%esi,2),%eax
 8049976:	8d 44 02 7b          	lea    0x7b(%edx,%eax,1),%eax
 804997a:	3d 00 20 00 00       	cmp    $0x2000,%eax
 804997f:	76 77                	jbe    80499f8 <submitr+0x2e5>
 8049981:	8b 44 24 34          	mov    0x34(%esp),%eax
 8049985:	c7 00 45 72 72 6f    	movl   $0x6f727245,(%eax)
 804998b:	c7 40 04 72 3a 20 52 	movl   $0x52203a72,0x4(%eax)
 8049992:	c7 40 08 65 73 75 6c 	movl   $0x6c757365,0x8(%eax)
 8049999:	c7 40 0c 74 20 73 74 	movl   $0x74732074,0xc(%eax)
 80499a0:	c7 40 10 72 69 6e 67 	movl   $0x676e6972,0x10(%eax)
 80499a7:	c7 40 14 20 74 6f 6f 	movl   $0x6f6f7420,0x14(%eax)
 80499ae:	c7 40 18 20 6c 61 72 	movl   $0x72616c20,0x18(%eax)
 80499b5:	c7 40 1c 67 65 2e 20 	movl   $0x202e6567,0x1c(%eax)
 80499bc:	c7 40 20 49 6e 63 72 	movl   $0x72636e49,0x20(%eax)
 80499c3:	c7 40 24 65 61 73 65 	movl   $0x65736165,0x24(%eax)
 80499ca:	c7 40 28 20 53 55 42 	movl   $0x42555320,0x28(%eax)
 80499d1:	c7 40 2c 4d 49 54 52 	movl   $0x5254494d,0x2c(%eax)
 80499d8:	c7 40 30 5f 4d 41 58 	movl   $0x58414d5f,0x30(%eax)
 80499df:	c7 40 34 42 55 46 00 	movl   $0x465542,0x34(%eax)
 80499e6:	89 2c 24             	mov    %ebp,(%esp)
 80499e9:	e8 72 ef ff ff       	call   8048960 <close@plt>
 80499ee:	b8 ff ff ff ff       	mov    $0xffffffff,%eax
 80499f3:	e9 21 04 00 00       	jmp    8049e19 <submitr+0x706>
 80499f8:	8d 94 24 60 20 00 00 	lea    0x2060(%esp),%edx
 80499ff:	b9 00 08 00 00       	mov    $0x800,%ecx
 8049a04:	b8 00 00 00 00       	mov    $0x0,%eax
 8049a09:	89 d7                	mov    %edx,%edi
 8049a0b:	f3 ab                	rep stos %eax,%es:(%edi)
 8049a0d:	89 df                	mov    %ebx,%edi
 8049a0f:	b9 ff ff ff ff       	mov    $0xffffffff,%ecx
 8049a14:	f2 ae                	repnz scas %es:(%edi),%al
 8049a16:	f7 d1                	not    %ecx
 8049a18:	83 e9 01             	sub    $0x1,%ecx
 8049a1b:	89 ce                	mov    %ecx,%esi
 8049a1d:	0f 84 0f 04 00 00    	je     8049e32 <submitr+0x71f>
 8049a23:	89 d7                	mov    %edx,%edi
 8049a25:	0f b6 03             	movzbl (%ebx),%eax
 8049a28:	3c 2a                	cmp    $0x2a,%al
 8049a2a:	74 21                	je     8049a4d <submitr+0x33a>
 8049a2c:	8d 50 d3             	lea    -0x2d(%eax),%edx
 8049a2f:	80 fa 01             	cmp    $0x1,%dl
 8049a32:	76 19                	jbe    8049a4d <submitr+0x33a>
 8049a34:	3c 5f                	cmp    $0x5f,%al
 8049a36:	74 15                	je     8049a4d <submitr+0x33a>
 8049a38:	8d 50 d0             	lea    -0x30(%eax),%edx
 8049a3b:	80 fa 09             	cmp    $0x9,%dl
 8049a3e:	76 0d                	jbe    8049a4d <submitr+0x33a>
 8049a40:	89 c2                	mov    %eax,%edx
 8049a42:	83 e2 df             	and    $0xffffffdf,%edx
 8049a45:	83 ea 41             	sub    $0x41,%edx
 8049a48:	80 fa 19             	cmp    $0x19,%dl
 8049a4b:	77 07                	ja     8049a54 <submitr+0x341>
 8049a4d:	8d 57 01             	lea    0x1(%edi),%edx
 8049a50:	88 07                	mov    %al,(%edi)
 8049a52:	eb 6d                	jmp    8049ac1 <submitr+0x3ae>
 8049a54:	3c 20                	cmp    $0x20,%al
 8049a56:	75 08                	jne    8049a60 <submitr+0x34d>
 8049a58:	8d 57 01             	lea    0x1(%edi),%edx
 8049a5b:	c6 07 2b             	movb   $0x2b,(%edi)
 8049a5e:	eb 61                	jmp    8049ac1 <submitr+0x3ae>
 8049a60:	8d 50 e0             	lea    -0x20(%eax),%edx
 8049a63:	80 fa 5f             	cmp    $0x5f,%dl
 8049a66:	76 08                	jbe    8049a70 <submitr+0x35d>
 8049a68:	3c 09                	cmp    $0x9,%al
 8049a6a:	0f 85 2d 04 00 00    	jne    8049e9d <submitr+0x78a>
 8049a70:	0f b6 c0             	movzbl %al,%eax
 8049a73:	89 44 24 10          	mov    %eax,0x10(%esp)
 8049a77:	c7 44 24 0c 28 a8 04 	movl   $0x804a828,0xc(%esp)
 8049a7e:	08 
 8049a7f:	c7 44 24 08 08 00 00 	movl   $0x8,0x8(%esp)
 8049a86:	00 
 8049a87:	c7 44 24 04 01 00 00 	movl   $0x1,0x4(%esp)
 8049a8e:	00 
 8049a8f:	8d 84 24 60 80 00 00 	lea    0x8060(%esp),%eax
 8049a96:	89 04 24             	mov    %eax,(%esp)
 8049a99:	e8 e2 ee ff ff       	call   8048980 <__sprintf_chk@plt>
 8049a9e:	0f b6 84 24 60 80 00 	movzbl 0x8060(%esp),%eax
 8049aa5:	00 
 8049aa6:	88 07                	mov    %al,(%edi)
 8049aa8:	0f b6 84 24 61 80 00 	movzbl 0x8061(%esp),%eax
 8049aaf:	00 
 8049ab0:	88 47 01             	mov    %al,0x1(%edi)
 8049ab3:	8d 57 03             	lea    0x3(%edi),%edx
 8049ab6:	0f b6 84 24 62 80 00 	movzbl 0x8062(%esp),%eax
 8049abd:	00 
 8049abe:	88 47 02             	mov    %al,0x2(%edi)
 8049ac1:	83 c3 01             	add    $0x1,%ebx
 8049ac4:	83 ee 01             	sub    $0x1,%esi
 8049ac7:	0f 84 65 03 00 00    	je     8049e32 <submitr+0x71f>
 8049acd:	89 d7                	mov    %edx,%edi
 8049acf:	e9 51 ff ff ff       	jmp    8049a25 <submitr+0x312>
 8049ad4:	89 5c 24 08          	mov    %ebx,0x8(%esp)
 8049ad8:	89 74 24 04          	mov    %esi,0x4(%esp)
 8049adc:	89 2c 24             	mov    %ebp,(%esp)
 8049adf:	e8 cc ed ff ff       	call   80488b0 <write@plt>
 8049ae4:	85 c0                	test   %eax,%eax
 8049ae6:	7f 0f                	jg     8049af7 <submitr+0x3e4>
 8049ae8:	e8 03 ee ff ff       	call   80488f0 <__errno_location@plt>
 8049aed:	83 38 04             	cmpl   $0x4,(%eax)
 8049af0:	75 0f                	jne    8049b01 <submitr+0x3ee>
 8049af2:	b8 00 00 00 00       	mov    $0x0,%eax
 8049af7:	01 c6                	add    %eax,%esi
 8049af9:	29 c3                	sub    %eax,%ebx
 8049afb:	75 d7                	jne    8049ad4 <submitr+0x3c1>
 8049afd:	85 ff                	test   %edi,%edi
 8049aff:	79 62                	jns    8049b63 <submitr+0x450>
 8049b01:	8b 44 24 34          	mov    0x34(%esp),%eax
 8049b05:	c7 00 45 72 72 6f    	movl   $0x6f727245,(%eax)
 8049b0b:	c7 40 04 72 3a 20 43 	movl   $0x43203a72,0x4(%eax)
 8049b12:	c7 40 08 6c 69 65 6e 	movl   $0x6e65696c,0x8(%eax)
 8049b19:	c7 40 0c 74 20 75 6e 	movl   $0x6e752074,0xc(%eax)
 8049b20:	c7 40 10 61 62 6c 65 	movl   $0x656c6261,0x10(%eax)
 8049b27:	c7 40 14 20 74 6f 20 	movl   $0x206f7420,0x14(%eax)
 8049b2e:	c7 40 18 77 72 69 74 	movl   $0x74697277,0x18(%eax)
 8049b35:	c7 40 1c 65 20 74 6f 	movl   $0x6f742065,0x1c(%eax)
 8049b3c:	c7 40 20 20 74 68 65 	movl   $0x65687420,0x20(%eax)
 8049b43:	c7 40 24 20 73 65 72 	movl   $0x72657320,0x24(%eax)
 8049b4a:	c7 40 28 76 65 72 00 	movl   $0x726576,0x28(%eax)
 8049b51:	89 2c 24             	mov    %ebp,(%esp)
 8049b54:	e8 07 ee ff ff       	call   8048960 <close@plt>
 8049b59:	b8 ff ff ff ff       	mov    $0xffffffff,%eax
 8049b5e:	e9 b6 02 00 00       	jmp    8049e19 <submitr+0x706>
 8049b63:	89 ac 24 60 80 00 00 	mov    %ebp,0x8060(%esp)
 8049b6a:	c7 84 24 64 80 00 00 	movl   $0x0,0x8064(%esp)
 8049b71:	00 00 00 00 
 8049b75:	8d 84 24 6c 80 00 00 	lea    0x806c(%esp),%eax
 8049b7c:	89 84 24 68 80 00 00 	mov    %eax,0x8068(%esp)
 8049b83:	b9 00 20 00 00       	mov    $0x2000,%ecx
 8049b88:	8d 54 24 60          	lea    0x60(%esp),%edx
 8049b8c:	8d 84 24 60 80 00 00 	lea    0x8060(%esp),%eax
 8049b93:	e8 6c fa ff ff       	call   8049604 <rio_readlineb>
 8049b98:	85 c0                	test   %eax,%eax
 8049b9a:	7f 76                	jg     8049c12 <submitr+0x4ff>
 8049b9c:	8b 44 24 34          	mov    0x34(%esp),%eax
 8049ba0:	c7 00 45 72 72 6f    	movl   $0x6f727245,(%eax)
 8049ba6:	c7 40 04 72 3a 20 43 	movl   $0x43203a72,0x4(%eax)
 8049bad:	c7 40 08 6c 69 65 6e 	movl   $0x6e65696c,0x8(%eax)
 8049bb4:	c7 40 0c 74 20 75 6e 	movl   $0x6e752074,0xc(%eax)
 8049bbb:	c7 40 10 61 62 6c 65 	movl   $0x656c6261,0x10(%eax)
 8049bc2:	c7 40 14 20 74 6f 20 	movl   $0x206f7420,0x14(%eax)
 8049bc9:	c7 40 18 72 65 61 64 	movl   $0x64616572,0x18(%eax)
 8049bd0:	c7 40 1c 20 66 69 72 	movl   $0x72696620,0x1c(%eax)
 8049bd7:	c7 40 20 73 74 20 68 	movl   $0x68207473,0x20(%eax)
 8049bde:	c7 40 24 65 61 64 65 	movl   $0x65646165,0x24(%eax)
 8049be5:	c7 40 28 72 20 66 72 	movl   $0x72662072,0x28(%eax)
 8049bec:	c7 40 2c 6f 6d 20 73 	movl   $0x73206d6f,0x2c(%eax)
 8049bf3:	c7 40 30 65 72 76 65 	movl   $0x65767265,0x30(%eax)
 8049bfa:	66 c7 40 34 72 00    	movw   $0x72,0x34(%eax)
 8049c00:	89 2c 24             	mov    %ebp,(%esp)
 8049c03:	e8 58 ed ff ff       	call   8048960 <close@plt>
 8049c08:	b8 ff ff ff ff       	mov    $0xffffffff,%eax
 8049c0d:	e9 07 02 00 00       	jmp    8049e19 <submitr+0x706>
 8049c12:	8d 84 24 60 60 00 00 	lea    0x6060(%esp),%eax
 8049c19:	89 44 24 10          	mov    %eax,0x10(%esp)
 8049c1d:	8d 44 24 4c          	lea    0x4c(%esp),%eax
 8049c21:	89 44 24 0c          	mov    %eax,0xc(%esp)
 8049c25:	8d 84 24 60 40 00 00 	lea    0x4060(%esp),%eax
 8049c2c:	89 44 24 08          	mov    %eax,0x8(%esp)
 8049c30:	c7 44 24 04 2f a8 04 	movl   $0x804a82f,0x4(%esp)
 8049c37:	08 
 8049c38:	8d 44 24 60          	lea    0x60(%esp),%eax
 8049c3c:	89 04 24             	mov    %eax,(%esp)
 8049c3f:	e8 8c ec ff ff       	call   80488d0 <__isoc99_sscanf@plt>
 8049c44:	8b 44 24 4c          	mov    0x4c(%esp),%eax
 8049c48:	3d c8 00 00 00       	cmp    $0xc8,%eax
 8049c4d:	0f 84 cb 00 00 00    	je     8049d1e <submitr+0x60b>
 8049c53:	8d 94 24 60 60 00 00 	lea    0x6060(%esp),%edx
 8049c5a:	89 54 24 14          	mov    %edx,0x14(%esp)
 8049c5e:	89 44 24 10          	mov    %eax,0x10(%esp)
 8049c62:	c7 44 24 0c 40 a7 04 	movl   $0x804a740,0xc(%esp)
 8049c69:	08 
 8049c6a:	c7 44 24 08 ff ff ff 	movl   $0xffffffff,0x8(%esp)
 8049c71:	ff 
 8049c72:	c7 44 24 04 01 00 00 	movl   $0x1,0x4(%esp)
 8049c79:	00 
 8049c7a:	8b 44 24 34          	mov    0x34(%esp),%eax
 8049c7e:	89 04 24             	mov    %eax,(%esp)
 8049c81:	e8 fa ec ff ff       	call   8048980 <__sprintf_chk@plt>
 8049c86:	89 2c 24             	mov    %ebp,(%esp)
 8049c89:	e8 d2 ec ff ff       	call   8048960 <close@plt>
 8049c8e:	b8 ff ff ff ff       	mov    $0xffffffff,%eax
 8049c93:	e9 81 01 00 00       	jmp    8049e19 <submitr+0x706>
 8049c98:	b9 00 20 00 00       	mov    $0x2000,%ecx
 8049c9d:	8d 54 24 60          	lea    0x60(%esp),%edx
 8049ca1:	8d 84 24 60 80 00 00 	lea    0x8060(%esp),%eax
 8049ca8:	e8 57 f9 ff ff       	call   8049604 <rio_readlineb>
 8049cad:	85 c0                	test   %eax,%eax
 8049caf:	7f 6d                	jg     8049d1e <submitr+0x60b>
 8049cb1:	8b 44 24 34          	mov    0x34(%esp),%eax
 8049cb5:	c7 00 45 72 72 6f    	movl   $0x6f727245,(%eax)
 8049cbb:	c7 40 04 72 3a 20 43 	movl   $0x43203a72,0x4(%eax)
 8049cc2:	c7 40 08 6c 69 65 6e 	movl   $0x6e65696c,0x8(%eax)
 8049cc9:	c7 40 0c 74 20 75 6e 	movl   $0x6e752074,0xc(%eax)
 8049cd0:	c7 40 10 61 62 6c 65 	movl   $0x656c6261,0x10(%eax)
 8049cd7:	c7 40 14 20 74 6f 20 	movl   $0x206f7420,0x14(%eax)
 8049cde:	c7 40 18 72 65 61 64 	movl   $0x64616572,0x18(%eax)
 8049ce5:	c7 40 1c 20 68 65 61 	movl   $0x61656820,0x1c(%eax)
 8049cec:	c7 40 20 64 65 72 73 	movl   $0x73726564,0x20(%eax)
 8049cf3:	c7 40 24 20 66 72 6f 	movl   $0x6f726620,0x24(%eax)
 8049cfa:	c7 40 28 6d 20 73 65 	movl   $0x6573206d,0x28(%eax)
 8049d01:	c7 40 2c 72 76 65 72 	movl   $0x72657672,0x2c(%eax)
 8049d08:	c6 40 30 00          	movb   $0x0,0x30(%eax)
 8049d0c:	89 2c 24             	mov    %ebp,(%esp)
 8049d0f:	e8 4c ec ff ff       	call   8048960 <close@plt>
 8049d14:	b8 ff ff ff ff       	mov    $0xffffffff,%eax
 8049d19:	e9 fb 00 00 00       	jmp    8049e19 <submitr+0x706>
 8049d1e:	80 7c 24 60 0d       	cmpb   $0xd,0x60(%esp)
 8049d23:	0f 85 6f ff ff ff    	jne    8049c98 <submitr+0x585>
 8049d29:	80 7c 24 61 0a       	cmpb   $0xa,0x61(%esp)
 8049d2e:	0f 85 64 ff ff ff    	jne    8049c98 <submitr+0x585>
 8049d34:	80 7c 24 62 00       	cmpb   $0x0,0x62(%esp)
 8049d39:	0f 85 59 ff ff ff    	jne    8049c98 <submitr+0x585>
 8049d3f:	b9 00 20 00 00       	mov    $0x2000,%ecx
 8049d44:	8d 54 24 60          	lea    0x60(%esp),%edx
 8049d48:	8d 84 24 60 80 00 00 	lea    0x8060(%esp),%eax
 8049d4f:	e8 b0 f8 ff ff       	call   8049604 <rio_readlineb>
 8049d54:	85 c0                	test   %eax,%eax
 8049d56:	7f 74                	jg     8049dcc <submitr+0x6b9>
 8049d58:	8b 44 24 34          	mov    0x34(%esp),%eax
 8049d5c:	c7 00 45 72 72 6f    	movl   $0x6f727245,(%eax)
 8049d62:	c7 40 04 72 3a 20 43 	movl   $0x43203a72,0x4(%eax)
 8049d69:	c7 40 08 6c 69 65 6e 	movl   $0x6e65696c,0x8(%eax)
 8049d70:	c7 40 0c 74 20 75 6e 	movl   $0x6e752074,0xc(%eax)
 8049d77:	c7 40 10 61 62 6c 65 	movl   $0x656c6261,0x10(%eax)
 8049d7e:	c7 40 14 20 74 6f 20 	movl   $0x206f7420,0x14(%eax)
 8049d85:	c7 40 18 72 65 61 64 	movl   $0x64616572,0x18(%eax)
 8049d8c:	c7 40 1c 20 73 74 61 	movl   $0x61747320,0x1c(%eax)
 8049d93:	c7 40 20 74 75 73 20 	movl   $0x20737574,0x20(%eax)
 8049d9a:	c7 40 24 6d 65 73 73 	movl   $0x7373656d,0x24(%eax)
 8049da1:	c7 40 28 61 67 65 20 	movl   $0x20656761,0x28(%eax)
 8049da8:	c7 40 2c 66 72 6f 6d 	movl   $0x6d6f7266,0x2c(%eax)
 8049daf:	c7 40 30 20 73 65 72 	movl   $0x72657320,0x30(%eax)
 8049db6:	c7 40 34 76 65 72 00 	movl   $0x726576,0x34(%eax)
 8049dbd:	89 2c 24             	mov    %ebp,(%esp)
 8049dc0:	e8 9b eb ff ff       	call   8048960 <close@plt>
 8049dc5:	b8 ff ff ff ff       	mov    $0xffffffff,%eax
 8049dca:	eb 4d                	jmp    8049e19 <submitr+0x706>
 8049dcc:	8d 44 24 60          	lea    0x60(%esp),%eax
 8049dd0:	89 44 24 04          	mov    %eax,0x4(%esp)
 8049dd4:	8b 74 24 34          	mov    0x34(%esp),%esi
 8049dd8:	89 34 24             	mov    %esi,(%esp)
 8049ddb:	e8 40 ea ff ff       	call   8048820 <strcpy@plt>
 8049de0:	89 2c 24             	mov    %ebp,(%esp)
 8049de3:	e8 78 eb ff ff       	call   8048960 <close@plt>
 8049de8:	0f b6 06             	movzbl (%esi),%eax
 8049deb:	ba 4f 00 00 00       	mov    $0x4f,%edx
 8049df0:	29 c2                	sub    %eax,%edx
 8049df2:	75 1b                	jne    8049e0f <submitr+0x6fc>
 8049df4:	8b 44 24 34          	mov    0x34(%esp),%eax
 8049df8:	0f b6 40 01          	movzbl 0x1(%eax),%eax
 8049dfc:	ba 4b 00 00 00       	mov    $0x4b,%edx
 8049e01:	29 c2                	sub    %eax,%edx
 8049e03:	75 0a                	jne    8049e0f <submitr+0x6fc>
 8049e05:	8b 44 24 34          	mov    0x34(%esp),%eax
 8049e09:	0f b6 50 02          	movzbl 0x2(%eax),%edx
 8049e0d:	f7 da                	neg    %edx
 8049e0f:	85 d2                	test   %edx,%edx
 8049e11:	0f 95 c0             	setne  %al
 8049e14:	0f b6 c0             	movzbl %al,%eax
 8049e17:	f7 d8                	neg    %eax
 8049e19:	8b 8c 24 6c a0 00 00 	mov    0xa06c(%esp),%ecx
 8049e20:	65 33 0d 14 00 00 00 	xor    %gs:0x14,%ecx
 8049e27:	0f 84 ef 00 00 00    	je     8049f1c <submitr+0x809>
 8049e2d:	e9 e5 00 00 00       	jmp    8049f17 <submitr+0x804>
 8049e32:	8d 84 24 60 20 00 00 	lea    0x2060(%esp),%eax
 8049e39:	89 44 24 1c          	mov    %eax,0x1c(%esp)
 8049e3d:	8b 44 24 30          	mov    0x30(%esp),%eax
 8049e41:	89 44 24 18          	mov    %eax,0x18(%esp)
 8049e45:	8b 44 24 2c          	mov    0x2c(%esp),%eax
 8049e49:	89 44 24 14          	mov    %eax,0x14(%esp)
 8049e4d:	8b 44 24 28          	mov    0x28(%esp),%eax
 8049e51:	89 44 24 10          	mov    %eax,0x10(%esp)
 8049e55:	c7 44 24 0c 70 a7 04 	movl   $0x804a770,0xc(%esp)
 8049e5c:	08 
 8049e5d:	c7 44 24 08 00 20 00 	movl   $0x2000,0x8(%esp)
 8049e64:	00 
 8049e65:	c7 44 24 04 01 00 00 	movl   $0x1,0x4(%esp)
 8049e6c:	00 
 8049e6d:	8d 7c 24 60          	lea    0x60(%esp),%edi
 8049e71:	89 3c 24             	mov    %edi,(%esp)
 8049e74:	e8 07 eb ff ff       	call   8048980 <__sprintf_chk@plt>
 8049e79:	b8 00 00 00 00       	mov    $0x0,%eax
 8049e7e:	b9 ff ff ff ff       	mov    $0xffffffff,%ecx
 8049e83:	f2 ae                	repnz scas %es:(%edi),%al
 8049e85:	f7 d1                	not    %ecx
 8049e87:	83 e9 01             	sub    $0x1,%ecx
 8049e8a:	89 cf                	mov    %ecx,%edi
 8049e8c:	0f 84 d1 fc ff ff    	je     8049b63 <submitr+0x450>
 8049e92:	89 cb                	mov    %ecx,%ebx
 8049e94:	8d 74 24 60          	lea    0x60(%esp),%esi
 8049e98:	e9 37 fc ff ff       	jmp    8049ad4 <submitr+0x3c1>
 8049e9d:	8b 4c 24 34          	mov    0x34(%esp),%ecx
 8049ea1:	89 cf                	mov    %ecx,%edi
 8049ea3:	be bc a7 04 08       	mov    $0x804a7bc,%esi
 8049ea8:	b8 43 00 00 00       	mov    $0x43,%eax
 8049ead:	f6 c1 01             	test   $0x1,%cl
 8049eb0:	74 16                	je     8049ec8 <submitr+0x7b5>
 8049eb2:	0f b6 05 bc a7 04 08 	movzbl 0x804a7bc,%eax
 8049eb9:	88 01                	mov    %al,(%ecx)
 8049ebb:	8d 79 01             	lea    0x1(%ecx),%edi
 8049ebe:	be bd a7 04 08       	mov    $0x804a7bd,%esi
 8049ec3:	b8 42 00 00 00       	mov    $0x42,%eax
 8049ec8:	f7 c7 02 00 00 00    	test   $0x2,%edi
 8049ece:	74 0f                	je     8049edf <submitr+0x7cc>
 8049ed0:	0f b7 16             	movzwl (%esi),%edx
 8049ed3:	66 89 17             	mov    %dx,(%edi)
 8049ed6:	83 c7 02             	add    $0x2,%edi
 8049ed9:	83 c6 02             	add    $0x2,%esi
 8049edc:	83 e8 02             	sub    $0x2,%eax
 8049edf:	89 c1                	mov    %eax,%ecx
 8049ee1:	c1 e9 02             	shr    $0x2,%ecx
 8049ee4:	f3 a5                	rep movsl %ds:(%esi),%es:(%edi)
 8049ee6:	ba 00 00 00 00       	mov    $0x0,%edx
 8049eeb:	a8 02                	test   $0x2,%al
 8049eed:	74 0b                	je     8049efa <submitr+0x7e7>
 8049eef:	0f b7 16             	movzwl (%esi),%edx
 8049ef2:	66 89 17             	mov    %dx,(%edi)
 8049ef5:	ba 02 00 00 00       	mov    $0x2,%edx
 8049efa:	a8 01                	test   $0x1,%al
 8049efc:	74 07                	je     8049f05 <submitr+0x7f2>
 8049efe:	0f b6 04 16          	movzbl (%esi,%edx,1),%eax
 8049f02:	88 04 17             	mov    %al,(%edi,%edx,1)
 8049f05:	89 2c 24             	mov    %ebp,(%esp)
 8049f08:	e8 53 ea ff ff       	call   8048960 <close@plt>
 8049f0d:	b8 ff ff ff ff       	mov    $0xffffffff,%eax
 8049f12:	e9 02 ff ff ff       	jmp    8049e19 <submitr+0x706>
 8049f17:	e8 f4 e8 ff ff       	call   8048810 <__stack_chk_fail@plt>
 8049f1c:	81 c4 7c a0 00 00    	add    $0xa07c,%esp
 8049f22:	5b                   	pop    %ebx
 8049f23:	5e                   	pop    %esi
 8049f24:	5f                   	pop    %edi
 8049f25:	5d                   	pop    %ebp
 8049f26:	c3                   	ret    

08049f27 <init_timeout>:
 8049f27:	53                   	push   %ebx
 8049f28:	83 ec 18             	sub    $0x18,%esp
 8049f2b:	8b 5c 24 20          	mov    0x20(%esp),%ebx
 8049f2f:	85 db                	test   %ebx,%ebx
 8049f31:	74 26                	je     8049f59 <init_timeout+0x32>
 8049f33:	c7 44 24 04 d0 95 04 	movl   $0x80495d0,0x4(%esp)
 8049f3a:	08 
 8049f3b:	c7 04 24 0e 00 00 00 	movl   $0xe,(%esp)
 8049f42:	e8 99 e8 ff ff       	call   80487e0 <signal@plt>
 8049f47:	85 db                	test   %ebx,%ebx
 8049f49:	b8 00 00 00 00       	mov    $0x0,%eax
 8049f4e:	0f 48 d8             	cmovs  %eax,%ebx
 8049f51:	89 1c 24             	mov    %ebx,(%esp)
 8049f54:	e8 a7 e8 ff ff       	call   8048800 <alarm@plt>
 8049f59:	83 c4 18             	add    $0x18,%esp
 8049f5c:	5b                   	pop    %ebx
 8049f5d:	c3                   	ret    

08049f5e <init_driver>:
 8049f5e:	57                   	push   %edi
 8049f5f:	56                   	push   %esi
 8049f60:	53                   	push   %ebx
 8049f61:	83 ec 40             	sub    $0x40,%esp
 8049f64:	8b 74 24 50          	mov    0x50(%esp),%esi
 8049f68:	65 a1 14 00 00 00    	mov    %gs:0x14,%eax
 8049f6e:	89 44 24 3c          	mov    %eax,0x3c(%esp)
 8049f72:	31 c0                	xor    %eax,%eax
 8049f74:	c7 44 24 04 01 00 00 	movl   $0x1,0x4(%esp)
 8049f7b:	00 
 8049f7c:	c7 04 24 0d 00 00 00 	movl   $0xd,(%esp)
 8049f83:	e8 58 e8 ff ff       	call   80487e0 <signal@plt>
 8049f88:	c7 44 24 04 01 00 00 	movl   $0x1,0x4(%esp)
 8049f8f:	00 
 8049f90:	c7 04 24 1d 00 00 00 	movl   $0x1d,(%esp)
 8049f97:	e8 44 e8 ff ff       	call   80487e0 <signal@plt>
 8049f9c:	c7 44 24 04 01 00 00 	movl   $0x1,0x4(%esp)
 8049fa3:	00 
 8049fa4:	c7 04 24 1d 00 00 00 	movl   $0x1d,(%esp)
 8049fab:	e8 30 e8 ff ff       	call   80487e0 <signal@plt>
 8049fb0:	c7 44 24 08 00 00 00 	movl   $0x0,0x8(%esp)
 8049fb7:	00 
 8049fb8:	c7 44 24 04 01 00 00 	movl   $0x1,0x4(%esp)
 8049fbf:	00 
 8049fc0:	c7 04 24 02 00 00 00 	movl   $0x2,(%esp)
 8049fc7:	e8 44 e9 ff ff       	call   8048910 <socket@plt>
 8049fcc:	89 c3                	mov    %eax,%ebx
 8049fce:	85 c0                	test   %eax,%eax
 8049fd0:	79 4e                	jns    804a020 <init_driver+0xc2>
 8049fd2:	c7 06 45 72 72 6f    	movl   $0x6f727245,(%esi)
 8049fd8:	c7 46 04 72 3a 20 43 	movl   $0x43203a72,0x4(%esi)
 8049fdf:	c7 46 08 6c 69 65 6e 	movl   $0x6e65696c,0x8(%esi)
 8049fe6:	c7 46 0c 74 20 75 6e 	movl   $0x6e752074,0xc(%esi)
 8049fed:	c7 46 10 61 62 6c 65 	movl   $0x656c6261,0x10(%esi)
 8049ff4:	c7 46 14 20 74 6f 20 	movl   $0x206f7420,0x14(%esi)
 8049ffb:	c7 46 18 63 72 65 61 	movl   $0x61657263,0x18(%esi)
 804a002:	c7 46 1c 74 65 20 73 	movl   $0x73206574,0x1c(%esi)
 804a009:	c7 46 20 6f 63 6b 65 	movl   $0x656b636f,0x20(%esi)
 804a010:	66 c7 46 24 74 00    	movw   $0x74,0x24(%esi)
 804a016:	b8 ff ff ff ff       	mov    $0xffffffff,%eax
 804a01b:	e9 33 01 00 00       	jmp    804a153 <init_driver+0x1f5>
 804a020:	c7 04 24 0b a7 04 08 	movl   $0x804a70b,(%esp)
 804a027:	e8 04 e9 ff ff       	call   8048930 <gethostbyname@plt>
 804a02c:	85 c0                	test   %eax,%eax
 804a02e:	75 68                	jne    804a098 <init_driver+0x13a>
 804a030:	c7 06 45 72 72 6f    	movl   $0x6f727245,(%esi)
 804a036:	c7 46 04 72 3a 20 44 	movl   $0x44203a72,0x4(%esi)
 804a03d:	c7 46 08 4e 53 20 69 	movl   $0x6920534e,0x8(%esi)
 804a044:	c7 46 0c 73 20 75 6e 	movl   $0x6e752073,0xc(%esi)
 804a04b:	c7 46 10 61 62 6c 65 	movl   $0x656c6261,0x10(%esi)
 804a052:	c7 46 14 20 74 6f 20 	movl   $0x206f7420,0x14(%esi)
 804a059:	c7 46 18 72 65 73 6f 	movl   $0x6f736572,0x18(%esi)
 804a060:	c7 46 1c 6c 76 65 20 	movl   $0x2065766c,0x1c(%esi)
 804a067:	c7 46 20 73 65 72 76 	movl   $0x76726573,0x20(%esi)
 804a06e:	c7 46 24 65 72 20 61 	movl   $0x61207265,0x24(%esi)
 804a075:	c7 46 28 64 64 72 65 	movl   $0x65726464,0x28(%esi)
 804a07c:	66 c7 46 2c 73 73    	movw   $0x7373,0x2c(%esi)
 804a082:	c6 46 2e 00          	movb   $0x0,0x2e(%esi)
 804a086:	89 1c 24             	mov    %ebx,(%esp)
 804a089:	e8 d2 e8 ff ff       	call   8048960 <close@plt>
 804a08e:	b8 ff ff ff ff       	mov    $0xffffffff,%eax
 804a093:	e9 bb 00 00 00       	jmp    804a153 <init_driver+0x1f5>
 804a098:	8d 7c 24 2c          	lea    0x2c(%esp),%edi
 804a09c:	c7 44 24 2c 00 00 00 	movl   $0x0,0x2c(%esp)
 804a0a3:	00 
 804a0a4:	c7 44 24 30 00 00 00 	movl   $0x0,0x30(%esp)
 804a0ab:	00 
 804a0ac:	c7 44 24 34 00 00 00 	movl   $0x0,0x34(%esp)
 804a0b3:	00 
 804a0b4:	c7 44 24 38 00 00 00 	movl   $0x0,0x38(%esp)
 804a0bb:	00 
 804a0bc:	66 c7 44 24 2c 02 00 	movw   $0x2,0x2c(%esp)
 804a0c3:	c7 44 24 0c 0c 00 00 	movl   $0xc,0xc(%esp)
 804a0ca:	00 
 804a0cb:	8b 50 0c             	mov    0xc(%eax),%edx
 804a0ce:	89 54 24 08          	mov    %edx,0x8(%esp)
 804a0d2:	8b 40 10             	mov    0x10(%eax),%eax
 804a0d5:	8b 00                	mov    (%eax),%eax
 804a0d7:	89 44 24 04          	mov    %eax,0x4(%esp)
 804a0db:	8d 44 24 30          	lea    0x30(%esp),%eax
 804a0df:	89 04 24             	mov    %eax,(%esp)
 804a0e2:	e8 79 e7 ff ff       	call   8048860 <__memmove_chk@plt>
 804a0e7:	66 c7 44 24 2e 13 89 	movw   $0x8913,0x2e(%esp)
 804a0ee:	c7 44 24 08 10 00 00 	movl   $0x10,0x8(%esp)
 804a0f5:	00 
 804a0f6:	89 7c 24 04          	mov    %edi,0x4(%esp)
 804a0fa:	89 1c 24             	mov    %ebx,(%esp)
 804a0fd:	e8 4e e8 ff ff       	call   8048950 <connect@plt>
 804a102:	85 c0                	test   %eax,%eax
 804a104:	79 37                	jns    804a13d <init_driver+0x1df>
 804a106:	c7 44 24 10 0b a7 04 	movl   $0x804a70b,0x10(%esp)
 804a10d:	08 
 804a10e:	c7 44 24 0c 00 a8 04 	movl   $0x804a800,0xc(%esp)
 804a115:	08 
 804a116:	c7 44 24 08 ff ff ff 	movl   $0xffffffff,0x8(%esp)
 804a11d:	ff 
 804a11e:	c7 44 24 04 01 00 00 	movl   $0x1,0x4(%esp)
 804a125:	00 
 804a126:	89 34 24             	mov    %esi,(%esp)
 804a129:	e8 52 e8 ff ff       	call   8048980 <__sprintf_chk@plt>
 804a12e:	89 1c 24             	mov    %ebx,(%esp)
 804a131:	e8 2a e8 ff ff       	call   8048960 <close@plt>
 804a136:	b8 ff ff ff ff       	mov    $0xffffffff,%eax
 804a13b:	eb 16                	jmp    804a153 <init_driver+0x1f5>
 804a13d:	89 1c 24             	mov    %ebx,(%esp)
 804a140:	e8 1b e8 ff ff       	call   8048960 <close@plt>
 804a145:	66 c7 06 4f 4b       	movw   $0x4b4f,(%esi)
 804a14a:	c6 46 02 00          	movb   $0x0,0x2(%esi)
 804a14e:	b8 00 00 00 00       	mov    $0x0,%eax
 804a153:	8b 4c 24 3c          	mov    0x3c(%esp),%ecx
 804a157:	65 33 0d 14 00 00 00 	xor    %gs:0x14,%ecx
 804a15e:	74 05                	je     804a165 <init_driver+0x207>
 804a160:	e8 ab e6 ff ff       	call   8048810 <__stack_chk_fail@plt>
 804a165:	83 c4 40             	add    $0x40,%esp
 804a168:	5b                   	pop    %ebx
 804a169:	5e                   	pop    %esi
 804a16a:	5f                   	pop    %edi
 804a16b:	c3                   	ret    

0804a16c <driver_post>:
 804a16c:	53                   	push   %ebx
 804a16d:	83 ec 28             	sub    $0x28,%esp
 804a170:	8b 44 24 30          	mov    0x30(%esp),%eax
 804a174:	8b 5c 24 3c          	mov    0x3c(%esp),%ebx
 804a178:	83 7c 24 38 00       	cmpl   $0x0,0x38(%esp)
 804a17d:	74 2c                	je     804a1ab <driver_post+0x3f>
 804a17f:	8b 44 24 34          	mov    0x34(%esp),%eax
 804a183:	89 44 24 08          	mov    %eax,0x8(%esp)
 804a187:	c7 44 24 04 40 a8 04 	movl   $0x804a840,0x4(%esp)
 804a18e:	08 
 804a18f:	c7 04 24 01 00 00 00 	movl   $0x1,(%esp)
 804a196:	e8 65 e7 ff ff       	call   8048900 <__printf_chk@plt>
 804a19b:	66 c7 03 4f 4b       	movw   $0x4b4f,(%ebx)
 804a1a0:	c6 43 02 00          	movb   $0x0,0x2(%ebx)
 804a1a4:	b8 00 00 00 00       	mov    $0x0,%eax
 804a1a9:	eb 4d                	jmp    804a1f8 <driver_post+0x8c>
 804a1ab:	85 c0                	test   %eax,%eax
 804a1ad:	74 3b                	je     804a1ea <driver_post+0x7e>
 804a1af:	80 38 00             	cmpb   $0x0,(%eax)
 804a1b2:	74 36                	je     804a1ea <driver_post+0x7e>
 804a1b4:	89 5c 24 18          	mov    %ebx,0x18(%esp)
 804a1b8:	8b 54 24 34          	mov    0x34(%esp),%edx
 804a1bc:	89 54 24 14          	mov    %edx,0x14(%esp)
 804a1c0:	c7 44 24 10 57 a8 04 	movl   $0x804a857,0x10(%esp)
 804a1c7:	08 
 804a1c8:	89 44 24 0c          	mov    %eax,0xc(%esp)
 804a1cc:	c7 44 24 08 5b a8 04 	movl   $0x804a85b,0x8(%esp)
 804a1d3:	08 
 804a1d4:	c7 44 24 04 89 13 00 	movl   $0x1389,0x4(%esp)
 804a1db:	00 
 804a1dc:	c7 04 24 0b a7 04 08 	movl   $0x804a70b,(%esp)
 804a1e3:	e8 2b f5 ff ff       	call   8049713 <submitr>
 804a1e8:	eb 0e                	jmp    804a1f8 <driver_post+0x8c>
 804a1ea:	66 c7 03 4f 4b       	movw   $0x4b4f,(%ebx)
 804a1ef:	c6 43 02 00          	movb   $0x0,0x2(%ebx)
 804a1f3:	b8 00 00 00 00       	mov    $0x0,%eax
 804a1f8:	83 c4 28             	add    $0x28,%esp
 804a1fb:	5b                   	pop    %ebx
 804a1fc:	c3                   	ret    
 804a1fd:	66 90                	xchg   %ax,%ax
 804a1ff:	90                   	nop

0804a200 <__libc_csu_init>:
 804a200:	55                   	push   %ebp
 804a201:	57                   	push   %edi
 804a202:	31 ff                	xor    %edi,%edi
 804a204:	56                   	push   %esi
 804a205:	53                   	push   %ebx
 804a206:	e8 b5 e7 ff ff       	call   80489c0 <__x86.get_pc_thunk.bx>
 804a20b:	81 c3 f5 1d 00 00    	add    $0x1df5,%ebx
 804a211:	83 ec 1c             	sub    $0x1c,%esp
 804a214:	8b 6c 24 30          	mov    0x30(%esp),%ebp
 804a218:	8d b3 0c ff ff ff    	lea    -0xf4(%ebx),%esi
 804a21e:	e8 4d e5 ff ff       	call   8048770 <_init>
 804a223:	8d 83 08 ff ff ff    	lea    -0xf8(%ebx),%eax
 804a229:	29 c6                	sub    %eax,%esi
 804a22b:	c1 fe 02             	sar    $0x2,%esi
 804a22e:	85 f6                	test   %esi,%esi
 804a230:	74 27                	je     804a259 <__libc_csu_init+0x59>
 804a232:	8d b6 00 00 00 00    	lea    0x0(%esi),%esi
 804a238:	8b 44 24 38          	mov    0x38(%esp),%eax
 804a23c:	89 2c 24             	mov    %ebp,(%esp)
 804a23f:	89 44 24 08          	mov    %eax,0x8(%esp)
 804a243:	8b 44 24 34          	mov    0x34(%esp),%eax
 804a247:	89 44 24 04          	mov    %eax,0x4(%esp)
 804a24b:	ff 94 bb 08 ff ff ff 	call   *-0xf8(%ebx,%edi,4)
 804a252:	83 c7 01             	add    $0x1,%edi
 804a255:	39 f7                	cmp    %esi,%edi
 804a257:	75 df                	jne    804a238 <__libc_csu_init+0x38>
 804a259:	83 c4 1c             	add    $0x1c,%esp
 804a25c:	5b                   	pop    %ebx
 804a25d:	5e                   	pop    %esi
 804a25e:	5f                   	pop    %edi
 804a25f:	5d                   	pop    %ebp
 804a260:	c3                   	ret    
 804a261:	eb 0d                	jmp    804a270 <__libc_csu_fini>
 804a263:	90                   	nop
 804a264:	90                   	nop
 804a265:	90                   	nop
 804a266:	90                   	nop
 804a267:	90                   	nop
 804a268:	90                   	nop
 804a269:	90                   	nop
 804a26a:	90                   	nop
 804a26b:	90                   	nop
 804a26c:	90                   	nop
 804a26d:	90                   	nop
 804a26e:	90                   	nop
 804a26f:	90                   	nop

0804a270 <__libc_csu_fini>:
 804a270:	f3 c3                	repz ret 

Disassembly of section .fini:

0804a274 <_fini>:
 804a274:	53                   	push   %ebx
 804a275:	83 ec 08             	sub    $0x8,%esp
 804a278:	e8 43 e7 ff ff       	call   80489c0 <__x86.get_pc_thunk.bx>
 804a27d:	81 c3 83 1d 00 00    	add    $0x1d83,%ebx
 804a283:	83 c4 08             	add    $0x8,%esp
 804a286:	5b                   	pop    %ebx
 804a287:	c3                   	ret    
